Archive member included because of file (symbol)

c:/eclipse-arm/gcc-4_8-2014/bin/../lib/gcc/arm-none-eabi/4.8.4/armv7e-m/fpu\libgcc.a(_arm_addsubdf3.o)
                              ./ZHONX_III/Peripherals/Gyroscope/ADXRS620.o (__aeabi_dsub)
c:/eclipse-arm/gcc-4_8-2014/bin/../lib/gcc/arm-none-eabi/4.8.4/armv7e-m/fpu\libgcc.a(_arm_muldivdf3.o)
                              ./ZHONX_III/Peripherals/Gyroscope/ADXRS620.o (__aeabi_dmul)
c:/eclipse-arm/gcc-4_8-2014/bin/../lib/gcc/arm-none-eabi/4.8.4/armv7e-m/fpu\libgcc.a(_arm_fixdfsi.o)
                              ./ZHONX_III/Peripherals/Gyroscope/ADXRS620.o (__aeabi_d2iz)
c:/eclipse-arm/gcc-4_8-2014/bin/../lib/gcc/arm-none-eabi/4.8.4/armv7e-m/fpu\libgcc.a(_arm_truncdfsf2.o)
                              ./ZHONX_III/Peripherals/Gyroscope/ADXRS620.o (__aeabi_d2f)
c:/eclipse-arm/gcc-4_8-2014/bin/../lib/gcc/arm-none-eabi/4.8.4/../../../../arm-none-eabi/lib/armv7e-m/fpu\libg.a(lib_a-exit.o)
                              c:/eclipse-arm/gcc-4_8-2014/bin/../lib/gcc/arm-none-eabi/4.8.4/../../../../arm-none-eabi/lib/armv7e-m/fpu/crt0.o (exit)
c:/eclipse-arm/gcc-4_8-2014/bin/../lib/gcc/arm-none-eabi/4.8.4/../../../../arm-none-eabi/lib/armv7e-m/fpu\libg.a(lib_a-impure.o)
                              c:/eclipse-arm/gcc-4_8-2014/bin/../lib/gcc/arm-none-eabi/4.8.4/../../../../arm-none-eabi/lib/armv7e-m/fpu\libg.a(lib_a-exit.o) (_global_impure_ptr)
c:/eclipse-arm/gcc-4_8-2014/bin/../lib/gcc/arm-none-eabi/4.8.4/../../../../arm-none-eabi/lib/armv7e-m/fpu\libg.a(lib_a-init.o)
                              c:/eclipse-arm/gcc-4_8-2014/bin/../lib/gcc/arm-none-eabi/4.8.4/../../../../arm-none-eabi/lib/armv7e-m/fpu/crt0.o (__libc_init_array)
c:/eclipse-arm/gcc-4_8-2014/bin/../lib/gcc/arm-none-eabi/4.8.4/../../../../arm-none-eabi/lib/armv7e-m/fpu\libg.a(lib_a-memset.o)
                              c:/eclipse-arm/gcc-4_8-2014/bin/../lib/gcc/arm-none-eabi/4.8.4/../../../../arm-none-eabi/lib/armv7e-m/fpu/crt0.o (memset)
c:/eclipse-arm/gcc-4_8-2014/bin/../lib/gcc/arm-none-eabi/4.8.4/../../../../arm-none-eabi/lib/armv7e-m/fpu\libg.a(lib_a-reent.o)
                              ./ZHONX_III/Src/syscalls.o (errno)
c:/eclipse-arm/gcc-4_8-2014/bin/../lib/gcc/arm-none-eabi/4.8.4/../../../../arm-none-eabi/lib/armv7e-m/fpu\libg.a(lib_a-sprintf.o)
                              ./ZHONX_III/Peripherals/Display/src/ssd1306.o (sprintf)
c:/eclipse-arm/gcc-4_8-2014/bin/../lib/gcc/arm-none-eabi/4.8.4/../../../../arm-none-eabi/lib/armv7e-m/fpu\libg.a(lib_a-strlen.o)
                              ./ZHONX_III/Src/itoa.o (strlen)
c:/eclipse-arm/gcc-4_8-2014/bin/../lib/gcc/arm-none-eabi/4.8.4/../../../../arm-none-eabi/lib/armv7e-m/fpu\libg.a(lib_a-svfprintf.o)
                              c:/eclipse-arm/gcc-4_8-2014/bin/../lib/gcc/arm-none-eabi/4.8.4/../../../../arm-none-eabi/lib/armv7e-m/fpu\libg.a(lib_a-sprintf.o) (_svfprintf_r)
c:/eclipse-arm/gcc-4_8-2014/bin/../lib/gcc/arm-none-eabi/4.8.4/../../../../arm-none-eabi/lib/armv7e-m/fpu\libg.a(lib_a-__call_atexit.o)
                              c:/eclipse-arm/gcc-4_8-2014/bin/../lib/gcc/arm-none-eabi/4.8.4/../../../../arm-none-eabi/lib/armv7e-m/fpu\libg.a(lib_a-exit.o) (__call_exitprocs)
c:/eclipse-arm/gcc-4_8-2014/bin/../lib/gcc/arm-none-eabi/4.8.4/../../../../arm-none-eabi/lib/armv7e-m/fpu\libg.a(lib_a-atexit.o)
                              c:/eclipse-arm/gcc-4_8-2014/bin/../lib/gcc/arm-none-eabi/4.8.4/../../../../arm-none-eabi/lib/armv7e-m/fpu\libg.a(lib_a-__call_atexit.o) (atexit)
c:/eclipse-arm/gcc-4_8-2014/bin/../lib/gcc/arm-none-eabi/4.8.4/../../../../arm-none-eabi/lib/armv7e-m/fpu\libg.a(lib_a-dtoa.o)
                              c:/eclipse-arm/gcc-4_8-2014/bin/../lib/gcc/arm-none-eabi/4.8.4/../../../../arm-none-eabi/lib/armv7e-m/fpu\libg.a(lib_a-svfprintf.o) (_dtoa_r)
c:/eclipse-arm/gcc-4_8-2014/bin/../lib/gcc/arm-none-eabi/4.8.4/../../../../arm-none-eabi/lib/armv7e-m/fpu\libg.a(lib_a-fini.o)
                              c:/eclipse-arm/gcc-4_8-2014/bin/../lib/gcc/arm-none-eabi/4.8.4/../../../../arm-none-eabi/lib/armv7e-m/fpu\libg.a(lib_a-__call_atexit.o) (__libc_fini_array)
c:/eclipse-arm/gcc-4_8-2014/bin/../lib/gcc/arm-none-eabi/4.8.4/../../../../arm-none-eabi/lib/armv7e-m/fpu\libg.a(lib_a-freer.o)
                              c:/eclipse-arm/gcc-4_8-2014/bin/../lib/gcc/arm-none-eabi/4.8.4/../../../../arm-none-eabi/lib/armv7e-m/fpu\libg.a(lib_a-reent.o) (_free_r)
c:/eclipse-arm/gcc-4_8-2014/bin/../lib/gcc/arm-none-eabi/4.8.4/../../../../arm-none-eabi/lib/armv7e-m/fpu\libg.a(lib_a-locale.o)
                              c:/eclipse-arm/gcc-4_8-2014/bin/../lib/gcc/arm-none-eabi/4.8.4/../../../../arm-none-eabi/lib/armv7e-m/fpu\libg.a(lib_a-svfprintf.o) (_localeconv_r)
c:/eclipse-arm/gcc-4_8-2014/bin/../lib/gcc/arm-none-eabi/4.8.4/../../../../arm-none-eabi/lib/armv7e-m/fpu\libg.a(lib_a-mallocr.o)
                              c:/eclipse-arm/gcc-4_8-2014/bin/../lib/gcc/arm-none-eabi/4.8.4/../../../../arm-none-eabi/lib/armv7e-m/fpu\libg.a(lib_a-svfprintf.o) (_malloc_r)
c:/eclipse-arm/gcc-4_8-2014/bin/../lib/gcc/arm-none-eabi/4.8.4/../../../../arm-none-eabi/lib/armv7e-m/fpu\libg.a(lib_a-memchr-stub.o)
                              c:/eclipse-arm/gcc-4_8-2014/bin/../lib/gcc/arm-none-eabi/4.8.4/../../../../arm-none-eabi/lib/armv7e-m/fpu\libg.a(lib_a-svfprintf.o) (memchr)
c:/eclipse-arm/gcc-4_8-2014/bin/../lib/gcc/arm-none-eabi/4.8.4/../../../../arm-none-eabi/lib/armv7e-m/fpu\libg.a(lib_a-memcpy.o)
                              c:/eclipse-arm/gcc-4_8-2014/bin/../lib/gcc/arm-none-eabi/4.8.4/../../../../arm-none-eabi/lib/armv7e-m/fpu\libg.a(lib_a-dtoa.o) (memcpy)
c:/eclipse-arm/gcc-4_8-2014/bin/../lib/gcc/arm-none-eabi/4.8.4/../../../../arm-none-eabi/lib/armv7e-m/fpu\libg.a(lib_a-mlock.o)
                              c:/eclipse-arm/gcc-4_8-2014/bin/../lib/gcc/arm-none-eabi/4.8.4/../../../../arm-none-eabi/lib/armv7e-m/fpu\libg.a(lib_a-freer.o) (__malloc_lock)
c:/eclipse-arm/gcc-4_8-2014/bin/../lib/gcc/arm-none-eabi/4.8.4/../../../../arm-none-eabi/lib/armv7e-m/fpu\libg.a(lib_a-mprec.o)
                              c:/eclipse-arm/gcc-4_8-2014/bin/../lib/gcc/arm-none-eabi/4.8.4/../../../../arm-none-eabi/lib/armv7e-m/fpu\libg.a(lib_a-dtoa.o) (_Balloc)
c:/eclipse-arm/gcc-4_8-2014/bin/../lib/gcc/arm-none-eabi/4.8.4/../../../../arm-none-eabi/lib/armv7e-m/fpu\libg.a(lib_a-s_fpclassify.o)
                              c:/eclipse-arm/gcc-4_8-2014/bin/../lib/gcc/arm-none-eabi/4.8.4/../../../../arm-none-eabi/lib/armv7e-m/fpu\libg.a(lib_a-svfprintf.o) (__fpclassifyd)
c:/eclipse-arm/gcc-4_8-2014/bin/../lib/gcc/arm-none-eabi/4.8.4/../../../../arm-none-eabi/lib/armv7e-m/fpu\libg.a(lib_a-sbrkr.o)
                              c:/eclipse-arm/gcc-4_8-2014/bin/../lib/gcc/arm-none-eabi/4.8.4/../../../../arm-none-eabi/lib/armv7e-m/fpu\libg.a(lib_a-freer.o) (_sbrk_r)
c:/eclipse-arm/gcc-4_8-2014/bin/../lib/gcc/arm-none-eabi/4.8.4/../../../../arm-none-eabi/lib/armv7e-m/fpu\libg.a(lib_a-strcmp.o)
                              c:/eclipse-arm/gcc-4_8-2014/bin/../lib/gcc/arm-none-eabi/4.8.4/../../../../arm-none-eabi/lib/armv7e-m/fpu\libg.a(lib_a-locale.o) (strcmp)
c:/eclipse-arm/gcc-4_8-2014/bin/../lib/gcc/arm-none-eabi/4.8.4/../../../../arm-none-eabi/lib/armv7e-m/fpu\libg.a(lib_a-svfiprintf.o)
                              c:/eclipse-arm/gcc-4_8-2014/bin/../lib/gcc/arm-none-eabi/4.8.4/../../../../arm-none-eabi/lib/armv7e-m/fpu\libg.a(lib_a-svfprintf.o) (__ssprint_r)
c:/eclipse-arm/gcc-4_8-2014/bin/../lib/gcc/arm-none-eabi/4.8.4/../../../../arm-none-eabi/lib/armv7e-m/fpu\libg.a(lib_a-__atexit.o)
                              c:/eclipse-arm/gcc-4_8-2014/bin/../lib/gcc/arm-none-eabi/4.8.4/../../../../arm-none-eabi/lib/armv7e-m/fpu\libg.a(lib_a-atexit.o) (__register_exitproc)
c:/eclipse-arm/gcc-4_8-2014/bin/../lib/gcc/arm-none-eabi/4.8.4/../../../../arm-none-eabi/lib/armv7e-m/fpu\libg.a(lib_a-callocr.o)
                              c:/eclipse-arm/gcc-4_8-2014/bin/../lib/gcc/arm-none-eabi/4.8.4/../../../../arm-none-eabi/lib/armv7e-m/fpu\libg.a(lib_a-mprec.o) (_calloc_r)
c:/eclipse-arm/gcc-4_8-2014/bin/../lib/gcc/arm-none-eabi/4.8.4/../../../../arm-none-eabi/lib/armv7e-m/fpu\libg.a(lib_a-memmove.o)
                              c:/eclipse-arm/gcc-4_8-2014/bin/../lib/gcc/arm-none-eabi/4.8.4/../../../../arm-none-eabi/lib/armv7e-m/fpu\libg.a(lib_a-svfiprintf.o) (memmove)
c:/eclipse-arm/gcc-4_8-2014/bin/../lib/gcc/arm-none-eabi/4.8.4/../../../../arm-none-eabi/lib/armv7e-m/fpu\libg.a(lib_a-reallocr.o)
                              c:/eclipse-arm/gcc-4_8-2014/bin/../lib/gcc/arm-none-eabi/4.8.4/../../../../arm-none-eabi/lib/armv7e-m/fpu\libg.a(lib_a-svfiprintf.o) (_realloc_r)
c:/eclipse-arm/gcc-4_8-2014/bin/../lib/gcc/arm-none-eabi/4.8.4/armv7e-m/fpu\libgcc.a(_arm_cmpdf2.o)
                              c:/eclipse-arm/gcc-4_8-2014/bin/../lib/gcc/arm-none-eabi/4.8.4/../../../../arm-none-eabi/lib/armv7e-m/fpu\libg.a(lib_a-svfprintf.o) (__aeabi_dcmpeq)
c:/eclipse-arm/gcc-4_8-2014/bin/../lib/gcc/arm-none-eabi/4.8.4/armv7e-m/fpu\libgcc.a(_aeabi_uldivmod.o)
                              c:/eclipse-arm/gcc-4_8-2014/bin/../lib/gcc/arm-none-eabi/4.8.4/../../../../arm-none-eabi/lib/armv7e-m/fpu\libg.a(lib_a-svfprintf.o) (__aeabi_uldivmod)
c:/eclipse-arm/gcc-4_8-2014/bin/../lib/gcc/arm-none-eabi/4.8.4/armv7e-m/fpu\libgcc.a(bpabi.o)
                              c:/eclipse-arm/gcc-4_8-2014/bin/../lib/gcc/arm-none-eabi/4.8.4/armv7e-m/fpu\libgcc.a(_aeabi_uldivmod.o) (__gnu_uldivmod_helper)
c:/eclipse-arm/gcc-4_8-2014/bin/../lib/gcc/arm-none-eabi/4.8.4/armv7e-m/fpu\libgcc.a(_dvmd_tls.o)
                              c:/eclipse-arm/gcc-4_8-2014/bin/../lib/gcc/arm-none-eabi/4.8.4/armv7e-m/fpu\libgcc.a(_aeabi_uldivmod.o) (__aeabi_ldiv0)
c:/eclipse-arm/gcc-4_8-2014/bin/../lib/gcc/arm-none-eabi/4.8.4/armv7e-m/fpu\libgcc.a(_divdi3.o)
                              c:/eclipse-arm/gcc-4_8-2014/bin/../lib/gcc/arm-none-eabi/4.8.4/armv7e-m/fpu\libgcc.a(bpabi.o) (__divdi3)
c:/eclipse-arm/gcc-4_8-2014/bin/../lib/gcc/arm-none-eabi/4.8.4/armv7e-m/fpu\libgcc.a(_udivdi3.o)
                              c:/eclipse-arm/gcc-4_8-2014/bin/../lib/gcc/arm-none-eabi/4.8.4/armv7e-m/fpu\libgcc.a(bpabi.o) (__udivdi3)

Allocating common symbols
Common symbol       size              file

trajectory_control  0xc               ./ZHONX_III/Enslavements/Straight_Controls/Straight_Controls.o
htim8               0x3c              ./ZHONX_III/Src/main.o
htim4               0x3c              ./ZHONX_III/Src/main.o
gyro_pid_instance   0x24              ./ZHONX_III/Enslavements/Straight_Controls/Straight_Controls.o
errno               0x4               c:/eclipse-arm/gcc-4_8-2014/bin/../lib/gcc/arm-none-eabi/4.8.4/../../../../arm-none-eabi/lib/armv7e-m/fpu\libg.a(lib_a-reent.o)
huart3              0x3c              ./ZHONX_III/Src/main.o
DMA_ADC_Gyro_Rate   0x4               ./ZHONX_III/Peripherals/Gyroscope/ADXRS620.o
hdma_i2c1_tx        0x50              ./ZHONX_III/Src/main.o
hi2c1               0x38              ./ZHONX_III/Src/main.o
htim10              0x3c              ./ZHONX_III/Src/main.o
pFlash              0x1c              ./ZHONX_III/Drivers/STM32F4xx_HAL_Driver/Src/stm32f4xx_hal_flash.o
htim3               0x3c              ./ZHONX_III/Src/main.o
hadc1               0x44              ./ZHONX_III/Src/main.o
sConfigOC           0x1c              ./ZHONX_III/Enslavements/Straight_Controls/Straight_Controls.o
hdma_adc1           0x50              ./ZHONX_III/Src/main.o
GPIO_InitStruct     0x14              ./ZHONX_III/TimesBase/TimesBase.o
htim6               0x3c              ./ZHONX_III/Src/main.o
htim1               0x3c              ./ZHONX_III/Src/main.o
hdma_i2c1_rx        0x50              ./ZHONX_III/Src/main.o
gyroRate            0x4               ./ZHONX_III/Peripherals/Tests/tests.o
htim7               0x3c              ./ZHONX_III/Src/main.o

Discarded input sections

 .text          0x00000000        0x0 c:/eclipse-arm/gcc-4_8-2014/bin/../lib/gcc/arm-none-eabi/4.8.4/armv7e-m/fpu/crti.o
 .data          0x00000000        0x0 c:/eclipse-arm/gcc-4_8-2014/bin/../lib/gcc/arm-none-eabi/4.8.4/armv7e-m/fpu/crti.o
 .bss           0x00000000        0x0 c:/eclipse-arm/gcc-4_8-2014/bin/../lib/gcc/arm-none-eabi/4.8.4/armv7e-m/fpu/crti.o
 .data          0x00000000        0x4 c:/eclipse-arm/gcc-4_8-2014/bin/../lib/gcc/arm-none-eabi/4.8.4/armv7e-m/fpu/crtbegin.o
 .text          0x00000000       0x74 c:/eclipse-arm/gcc-4_8-2014/bin/../lib/gcc/arm-none-eabi/4.8.4/../../../../arm-none-eabi/lib/armv7e-m/fpu/crt0.o
 .data          0x00000000        0x0 c:/eclipse-arm/gcc-4_8-2014/bin/../lib/gcc/arm-none-eabi/4.8.4/../../../../arm-none-eabi/lib/armv7e-m/fpu/crt0.o
 .bss           0x00000000        0x0 c:/eclipse-arm/gcc-4_8-2014/bin/../lib/gcc/arm-none-eabi/4.8.4/../../../../arm-none-eabi/lib/armv7e-m/fpu/crt0.o
 .ARM.extab     0x00000000        0x0 c:/eclipse-arm/gcc-4_8-2014/bin/../lib/gcc/arm-none-eabi/4.8.4/../../../../arm-none-eabi/lib/armv7e-m/fpu/crt0.o
 .ARM.exidx     0x00000000        0x8 c:/eclipse-arm/gcc-4_8-2014/bin/../lib/gcc/arm-none-eabi/4.8.4/../../../../arm-none-eabi/lib/armv7e-m/fpu/crt0.o
 .ARM.attributes
                0x00000000       0x20 c:/eclipse-arm/gcc-4_8-2014/bin/../lib/gcc/arm-none-eabi/4.8.4/../../../../arm-none-eabi/lib/armv7e-m/fpu/crt0.o
 .text          0x00000000        0x0 ./ZHONX_III/TimesBase/TimesBase.o
 .data          0x00000000        0x0 ./ZHONX_III/TimesBase/TimesBase.o
 .bss           0x00000000        0x0 ./ZHONX_III/TimesBase/TimesBase.o
 .text          0x00000000        0x0 ./ZHONX_III/Src/itoa.o
 .data          0x00000000        0x0 ./ZHONX_III/Src/itoa.o
 .bss           0x00000000        0x0 ./ZHONX_III/Src/itoa.o
 .text.strrev   0x00000000       0x5c ./ZHONX_III/Src/itoa.o
 .text.itoa     0x00000000       0xb0 ./ZHONX_III/Src/itoa.o
 .debug_info    0x00000000      0x153 ./ZHONX_III/Src/itoa.o
 .debug_abbrev  0x00000000       0xa3 ./ZHONX_III/Src/itoa.o
 .debug_aranges
                0x00000000       0x28 ./ZHONX_III/Src/itoa.o
 .debug_ranges  0x00000000       0x18 ./ZHONX_III/Src/itoa.o
 .debug_line    0x00000000       0x92 ./ZHONX_III/Src/itoa.o
 .debug_str     0x00000000      0x1e1 ./ZHONX_III/Src/itoa.o
 .comment       0x00000000       0x71 ./ZHONX_III/Src/itoa.o
 .ARM.attributes
                0x00000000       0x39 ./ZHONX_III/Src/itoa.o
 .debug_frame   0x00000000       0x50 ./ZHONX_III/Src/itoa.o
 .text          0x00000000        0x0 ./ZHONX_III/Src/main.o
 .data          0x00000000        0x0 ./ZHONX_III/Src/main.o
 .bss           0x00000000        0x0 ./ZHONX_III/Src/main.o
 .rodata.pic_battery_level
                0x00000000        0x8 ./ZHONX_III/Src/main.o
 .rodata.Pacabot_bmp
                0x00000000      0x280 ./ZHONX_III/Src/main.o
 .text          0x00000000        0x0 ./ZHONX_III/Src/stm32f4xx_hal_msp.o
 .data          0x00000000        0x0 ./ZHONX_III/Src/stm32f4xx_hal_msp.o
 .bss           0x00000000        0x0 ./ZHONX_III/Src/stm32f4xx_hal_msp.o
 .text.HAL_ADC_MspDeInit
                0x00000000       0x50 ./ZHONX_III/Src/stm32f4xx_hal_msp.o
 .text.HAL_I2C_MspDeInit
                0x00000000       0x58 ./ZHONX_III/Src/stm32f4xx_hal_msp.o
 .text.HAL_TIM_Encoder_MspDeInit
                0x00000000       0x70 ./ZHONX_III/Src/stm32f4xx_hal_msp.o
 .text.HAL_TIM_PWM_MspDeInit
                0x00000000       0x3c ./ZHONX_III/Src/stm32f4xx_hal_msp.o
 .text.HAL_TIM_Base_MspDeInit
                0x00000000       0xa0 ./ZHONX_III/Src/stm32f4xx_hal_msp.o
 .text.HAL_UART_MspDeInit
                0x00000000       0x3c ./ZHONX_III/Src/stm32f4xx_hal_msp.o
 .text          0x00000000        0x0 ./ZHONX_III/Src/stm32f4xx_it.o
 .data          0x00000000        0x0 ./ZHONX_III/Src/stm32f4xx_it.o
 .bss           0x00000000        0x0 ./ZHONX_III/Src/stm32f4xx_it.o
 .text          0x00000000        0x0 ./ZHONX_III/Src/syscalls.o
 .data          0x00000000        0x0 ./ZHONX_III/Src/syscalls.o
 .bss           0x00000000        0x0 ./ZHONX_III/Src/syscalls.o
 .bss.__env     0x00000000        0x4 ./ZHONX_III/Src/syscalls.o
 .data.environ  0x00000000        0x4 ./ZHONX_III/Src/syscalls.o
 .text.initialise_monitor_handles
                0x00000000        0xc ./ZHONX_III/Src/syscalls.o
 .text._getpid  0x00000000       0x10 ./ZHONX_III/Src/syscalls.o
 .text._kill    0x00000000       0x24 ./ZHONX_III/Src/syscalls.o
 .text._exit    0x00000000       0x14 ./ZHONX_III/Src/syscalls.o
 .text._read    0x00000000       0x3c ./ZHONX_III/Src/syscalls.o
 .text._write   0x00000000       0x3c ./ZHONX_III/Src/syscalls.o
 .text._close   0x00000000       0x18 ./ZHONX_III/Src/syscalls.o
 .text._fstat   0x00000000       0x20 ./ZHONX_III/Src/syscalls.o
 .text._isatty  0x00000000       0x18 ./ZHONX_III/Src/syscalls.o
 .text._lseek   0x00000000       0x1c ./ZHONX_III/Src/syscalls.o
 .text._open    0x00000000       0x1c ./ZHONX_III/Src/syscalls.o
 .text._wait    0x00000000       0x24 ./ZHONX_III/Src/syscalls.o
 .text._unlink  0x00000000       0x24 ./ZHONX_III/Src/syscalls.o
 .text._times   0x00000000       0x18 ./ZHONX_III/Src/syscalls.o
 .text._stat    0x00000000       0x20 ./ZHONX_III/Src/syscalls.o
 .text._link    0x00000000       0x24 ./ZHONX_III/Src/syscalls.o
 .text._fork    0x00000000       0x1c ./ZHONX_III/Src/syscalls.o
 .text._execve  0x00000000       0x28 ./ZHONX_III/Src/syscalls.o
 .text          0x00000000        0x0 ./ZHONX_III/Src/user_it_callback.o
 .data          0x00000000        0x0 ./ZHONX_III/Src/user_it_callback.o
 .bss           0x00000000        0x0 ./ZHONX_III/Src/user_it_callback.o
 .text          0x00000000        0x0 ./ZHONX_III/Peripherals/Tests/tests.o
 .data          0x00000000        0x0 ./ZHONX_III/Peripherals/Tests/tests.o
 .bss           0x00000000        0x0 ./ZHONX_III/Peripherals/Tests/tests.o
 .rodata.pic_battery_level
                0x00000000        0x8 ./ZHONX_III/Peripherals/Tests/tests.o
 .rodata.Pacabot_bmp
                0x00000000      0x280 ./ZHONX_III/Peripherals/Tests/tests.o
 .bss.uhADCxConvertedValue_1
                0x00000000        0x4 ./ZHONX_III/Peripherals/Tests/tests.o
 .bss.uhADCxConvertedValue_2
                0x00000000        0x4 ./ZHONX_III/Peripherals/Tests/tests.o
 .bss.uhADCxConvertedValue_3
                0x00000000        0x4 ./ZHONX_III/Peripherals/Tests/tests.o
 .bss.uhADCxConvertedValue_4
                0x00000000        0x4 ./ZHONX_III/Peripherals/Tests/tests.o
 .bss.uhADCxConvertedValue_5
                0x00000000        0x4 ./ZHONX_III/Peripherals/Tests/tests.o
 .bss.uhADCxConvertedValue_6
                0x00000000        0x4 ./ZHONX_III/Peripherals/Tests/tests.o
 .bss.uhADCxConvertedValue_7
                0x00000000        0x4 ./ZHONX_III/Peripherals/Tests/tests.o
 .bss.uhADCxConvertedValue_8
                0x00000000        0x4 ./ZHONX_III/Peripherals/Tests/tests.o
 .text.test_EasterEgg
                0x00000000       0xe4 ./ZHONX_III/Peripherals/Tests/tests.o
 .bss.currentAngle
                0x00000000        0x4 ./ZHONX_III/Peripherals/Tests/tests.o
 .text.init_display
                0x00000000       0x14 ./ZHONX_III/Peripherals/Tests/tests.o
 .text.test_Gyro
                0x00000000       0xac ./ZHONX_III/Peripherals/Tests/tests.o
 .text.test_Vbat
                0x00000000       0xc8 ./ZHONX_III/Peripherals/Tests/tests.o
 .text.test_LineSensors
                0x00000000      0x1a0 ./ZHONX_III/Peripherals/Tests/tests.o
 .text.test_Motor_Move
                0x00000000      0x288 ./ZHONX_III/Peripherals/Tests/tests.o
 .text.test_Motors
                0x00000000       0xa4 ./ZHONX_III/Peripherals/Tests/tests.o
 .text.test_Expander
                0x00000000      0x108 ./ZHONX_III/Peripherals/Tests/tests.o
 .text.test_PWled
                0x00000000       0x4c ./ZHONX_III/Peripherals/Tests/tests.o
 .text.test_Oled
                0x00000000      0x154 ./ZHONX_III/Peripherals/Tests/tests.o
 COMMON         0x00000000        0x4 ./ZHONX_III/Peripherals/Tests/tests.o
 .text          0x00000000        0x0 ./ZHONX_III/Peripherals/Telemeters/Telemeters.o
 .data          0x00000000        0x0 ./ZHONX_III/Peripherals/Telemeters/Telemeters.o
 .bss           0x00000000        0x0 ./ZHONX_III/Peripherals/Telemeters/Telemeters.o
 .rodata.pic_battery_level
                0x00000000        0x8 ./ZHONX_III/Peripherals/Telemeters/Telemeters.o
 .rodata.Pacabot_bmp
                0x00000000      0x280 ./ZHONX_III/Peripherals/Telemeters/Telemeters.o
 .text          0x00000000        0x0 ./ZHONX_III/Peripherals/Gyroscope/ADXRS620.o
 .data          0x00000000        0x0 ./ZHONX_III/Peripherals/Gyroscope/ADXRS620.o
 .bss           0x00000000        0x0 ./ZHONX_III/Peripherals/Gyroscope/ADXRS620.o
 .rodata.pic_battery_level
                0x00000000        0x8 ./ZHONX_III/Peripherals/Gyroscope/ADXRS620.o
 .rodata.Pacabot_bmp
                0x00000000      0x280 ./ZHONX_III/Peripherals/Gyroscope/ADXRS620.o
 .text          0x00000000        0x0 ./ZHONX_III/Peripherals/Expander/PCF8574.o
 .data          0x00000000        0x0 ./ZHONX_III/Peripherals/Expander/PCF8574.o
 .bss           0x00000000        0x0 ./ZHONX_III/Peripherals/Expander/PCF8574.o
 .text.ledState
                0x00000000       0x38 ./ZHONX_III/Peripherals/Expander/PCF8574.o
 .text.ExpanderGetbit
                0x00000000       0x18 ./ZHONX_III/Peripherals/Expander/PCF8574.o
 .text.ExpanderReset
                0x00000000        0xc ./ZHONX_III/Peripherals/Expander/PCF8574.o
 .text          0x00000000        0x0 ./ZHONX_III/Peripherals/Encoders/IE512.o
 .data          0x00000000        0x0 ./ZHONX_III/Peripherals/Encoders/IE512.o
 .bss           0x00000000        0x0 ./ZHONX_III/Peripherals/Encoders/IE512.o
 .rodata.pic_battery_level
                0x00000000        0x8 ./ZHONX_III/Peripherals/Encoders/IE512.o
 .rodata.Pacabot_bmp
                0x00000000      0x280 ./ZHONX_III/Peripherals/Encoders/IE512.o
 .text          0x00000000        0x0 ./ZHONX_III/Peripherals/Display/src/smallfonts.o
 .data          0x00000000        0x0 ./ZHONX_III/Peripherals/Display/src/smallfonts.o
 .bss           0x00000000        0x0 ./ZHONX_III/Peripherals/Display/src/smallfonts.o
 .rodata.Font_7x8
                0x00000000        0x8 ./ZHONX_III/Peripherals/Display/src/smallfonts.o
 .rodata.Font_8x8
                0x00000000        0x8 ./ZHONX_III/Peripherals/Display/src/smallfonts.o
 .rodata.Font_8x8Thin
                0x00000000        0x8 ./ZHONX_III/Peripherals/Display/src/smallfonts.o
 .rodata.au8Font7x8
                0x00000000      0x2a8 ./ZHONX_III/Peripherals/Display/src/smallfonts.o
 .rodata.au8Font8x8
                0x00000000      0x310 ./ZHONX_III/Peripherals/Display/src/smallfonts.o
 .rodata.au8Font8x8Thin
                0x00000000      0x408 ./ZHONX_III/Peripherals/Display/src/smallfonts.o
 .text          0x00000000        0x0 ./ZHONX_III/Peripherals/Display/src/ssd1306.o
 .data          0x00000000        0x0 ./ZHONX_III/Peripherals/Display/src/ssd1306.o
 .bss           0x00000000        0x0 ./ZHONX_III/Peripherals/Display/src/ssd1306.o
 .text.blink    0x00000000       0x58 ./ZHONX_III/Peripherals/Display/src/ssd1306.o
 .text.ssd1306ClearPixel
                0x00000000       0x64 ./ZHONX_III/Peripherals/Display/src/ssd1306.o
 .text.ssd1306InvertPixel
                0x00000000       0x60 ./ZHONX_III/Peripherals/Display/src/ssd1306.o
 .text.ssd1306GetPixel
                0x00000000       0x5c ./ZHONX_III/Peripherals/Display/src/ssd1306.o
 .text.ssd1306ShiftFrameBuffer
                0x00000000       0x98 ./ZHONX_III/Peripherals/Display/src/ssd1306.o
 .text.ssd1306DrawBmp
                0x00000000       0x80 ./ZHONX_III/Peripherals/Display/src/ssd1306.o
 .text.ssd1306DrawCircle
                0x00000000      0x18c ./ZHONX_III/Peripherals/Display/src/ssd1306.o
 .text.ssd1306FillCircle
                0x00000000      0x13c ./ZHONX_III/Peripherals/Display/src/ssd1306.o
 .text.ssd1306ClearCircle
                0x00000000      0x13c ./ZHONX_III/Peripherals/Display/src/ssd1306.o
 .text.ssd1306FillRect
                0x00000000       0x54 ./ZHONX_III/Peripherals/Display/src/ssd1306.o
 .text.ssd1306InvertArea
                0x00000000       0x54 ./ZHONX_III/Peripherals/Display/src/ssd1306.o
 .text.ssd1306ClearRect
                0x00000000       0x54 ./ZHONX_III/Peripherals/Display/src/ssd1306.o
 .text.ssd1306DrawRect
                0x00000000       0x90 ./ZHONX_III/Peripherals/Display/src/ssd1306.o
 .text.ssd1306DrawLine
                0x00000000       0xe8 ./ZHONX_III/Peripherals/Display/src/ssd1306.o
 .text.ssd1306ProgressBar
                0x00000000       0x50 ./ZHONX_III/Peripherals/Display/src/ssd1306.o
 .text          0x00000000        0x0 ./ZHONX_III/Peripherals/Bluetooth/Bluetooth.o
 .data          0x00000000        0x0 ./ZHONX_III/Peripherals/Bluetooth/Bluetooth.o
 .bss           0x00000000        0x0 ./ZHONX_III/Peripherals/Bluetooth/Bluetooth.o
 .text.Bluetooth_Init
                0x00000000        0xc ./ZHONX_III/Peripherals/Bluetooth/Bluetooth.o
 .rodata        0x00000000       0x1c ./ZHONX_III/Peripherals/Bluetooth/Bluetooth.o
 .text.printString
                0x00000000       0x24 ./ZHONX_III/Peripherals/Bluetooth/Bluetooth.o
 .text.printInt
                0x00000000       0x38 ./ZHONX_III/Peripherals/Bluetooth/Bluetooth.o
 .debug_info    0x00000000      0x5cd ./ZHONX_III/Peripherals/Bluetooth/Bluetooth.o
 .debug_abbrev  0x00000000      0x171 ./ZHONX_III/Peripherals/Bluetooth/Bluetooth.o
 .debug_aranges
                0x00000000       0x30 ./ZHONX_III/Peripherals/Bluetooth/Bluetooth.o
 .debug_ranges  0x00000000       0x20 ./ZHONX_III/Peripherals/Bluetooth/Bluetooth.o
 .debug_line    0x00000000      0x25b ./ZHONX_III/Peripherals/Bluetooth/Bluetooth.o
 .debug_str     0x00000000      0x70b ./ZHONX_III/Peripherals/Bluetooth/Bluetooth.o
 .comment       0x00000000       0x71 ./ZHONX_III/Peripherals/Bluetooth/Bluetooth.o
 .ARM.attributes
                0x00000000       0x39 ./ZHONX_III/Peripherals/Bluetooth/Bluetooth.o
 .debug_frame   0x00000000       0x68 ./ZHONX_III/Peripherals/Bluetooth/Bluetooth.o
 .text          0x00000000        0x0 ./ZHONX_III/Enslavements/Straight_Controls/Straight_Controls.o
 .data          0x00000000        0x0 ./ZHONX_III/Enslavements/Straight_Controls/Straight_Controls.o
 .bss           0x00000000        0x0 ./ZHONX_III/Enslavements/Straight_Controls/Straight_Controls.o
 .rodata.pic_battery_level
                0x00000000        0x8 ./ZHONX_III/Enslavements/Straight_Controls/Straight_Controls.o
 .rodata.Pacabot_bmp
                0x00000000      0x280 ./ZHONX_III/Enslavements/Straight_Controls/Straight_Controls.o
 .bss.i         0x00000000        0x4 ./ZHONX_III/Enslavements/Straight_Controls/Straight_Controls.o
 .rodata        0x00000000       0x2c ./ZHONX_III/Enslavements/Straight_Controls/Straight_Controls.o
 .text.Debug_Straight_Control
                0x00000000       0x6c ./ZHONX_III/Enslavements/Straight_Controls/Straight_Controls.o
 .text          0x00000000        0x0 ./ZHONX_III/Enslavements/PID/PID.o
 .data          0x00000000        0x0 ./ZHONX_III/Enslavements/PID/PID.o
 .bss           0x00000000        0x0 ./ZHONX_III/Enslavements/PID/PID.o
 .rodata.pic_battery_level
                0x00000000        0x8 ./ZHONX_III/Enslavements/PID/PID.o
 .rodata.Pacabot_bmp
                0x00000000      0x280 ./ZHONX_III/Enslavements/PID/PID.o
 .text.Pid_Reset
                0x00000000       0x14 ./ZHONX_III/Enslavements/PID/PID.o
 .text          0x00000000        0x0 ./ZHONX_III/Drivers/STM32F4xx_HAL_Driver/Src/stm32f4xx_hal.o
 .data          0x00000000        0x0 ./ZHONX_III/Drivers/STM32F4xx_HAL_Driver/Src/stm32f4xx_hal.o
 .bss           0x00000000        0x0 ./ZHONX_III/Drivers/STM32F4xx_HAL_Driver/Src/stm32f4xx_hal.o
 .text.HAL_DeInit
                0x00000000       0x58 ./ZHONX_III/Drivers/STM32F4xx_HAL_Driver/Src/stm32f4xx_hal.o
 .text.HAL_MspDeInit
                0x00000000        0xc ./ZHONX_III/Drivers/STM32F4xx_HAL_Driver/Src/stm32f4xx_hal.o
 .text.HAL_SuspendTick
                0x00000000       0x1c ./ZHONX_III/Drivers/STM32F4xx_HAL_Driver/Src/stm32f4xx_hal.o
 .text.HAL_ResumeTick
                0x00000000       0x1c ./ZHONX_III/Drivers/STM32F4xx_HAL_Driver/Src/stm32f4xx_hal.o
 .text.HAL_GetHalVersion
                0x00000000       0x14 ./ZHONX_III/Drivers/STM32F4xx_HAL_Driver/Src/stm32f4xx_hal.o
 .text.HAL_GetREVID
                0x00000000       0x18 ./ZHONX_III/Drivers/STM32F4xx_HAL_Driver/Src/stm32f4xx_hal.o
 .text.HAL_GetDEVID
                0x00000000       0x1c ./ZHONX_III/Drivers/STM32F4xx_HAL_Driver/Src/stm32f4xx_hal.o
 .text.HAL_EnableDBGSleepMode
                0x00000000       0x1c ./ZHONX_III/Drivers/STM32F4xx_HAL_Driver/Src/stm32f4xx_hal.o
 .text.HAL_DisableDBGSleepMode
                0x00000000       0x1c ./ZHONX_III/Drivers/STM32F4xx_HAL_Driver/Src/stm32f4xx_hal.o
 .text.HAL_EnableDBGStopMode
                0x00000000       0x1c ./ZHONX_III/Drivers/STM32F4xx_HAL_Driver/Src/stm32f4xx_hal.o
 .text.HAL_DisableDBGStopMode
                0x00000000       0x1c ./ZHONX_III/Drivers/STM32F4xx_HAL_Driver/Src/stm32f4xx_hal.o
 .text.HAL_EnableDBGStandbyMode
                0x00000000       0x1c ./ZHONX_III/Drivers/STM32F4xx_HAL_Driver/Src/stm32f4xx_hal.o
 .text.HAL_DisableDBGStandbyMode
                0x00000000       0x1c ./ZHONX_III/Drivers/STM32F4xx_HAL_Driver/Src/stm32f4xx_hal.o
 .text.HAL_EnableCompensationCell
                0x00000000       0x18 ./ZHONX_III/Drivers/STM32F4xx_HAL_Driver/Src/stm32f4xx_hal.o
 .text.HAL_DisableCompensationCell
                0x00000000       0x18 ./ZHONX_III/Drivers/STM32F4xx_HAL_Driver/Src/stm32f4xx_hal.o
 .text          0x00000000        0x0 ./ZHONX_III/Drivers/STM32F4xx_HAL_Driver/Src/stm32f4xx_hal_adc.o
 .data          0x00000000        0x0 ./ZHONX_III/Drivers/STM32F4xx_HAL_Driver/Src/stm32f4xx_hal_adc.o
 .bss           0x00000000        0x0 ./ZHONX_III/Drivers/STM32F4xx_HAL_Driver/Src/stm32f4xx_hal_adc.o
 .text.HAL_ADC_DeInit
                0x00000000       0x38 ./ZHONX_III/Drivers/STM32F4xx_HAL_Driver/Src/stm32f4xx_hal_adc.o
 .text.HAL_ADC_MspInit
                0x00000000       0x14 ./ZHONX_III/Drivers/STM32F4xx_HAL_Driver/Src/stm32f4xx_hal_adc.o
 .text.HAL_ADC_MspDeInit
                0x00000000       0x14 ./ZHONX_III/Drivers/STM32F4xx_HAL_Driver/Src/stm32f4xx_hal_adc.o
 .text.HAL_ADC_Stop
                0x00000000       0x30 ./ZHONX_III/Drivers/STM32F4xx_HAL_Driver/Src/stm32f4xx_hal_adc.o
 .text.HAL_ADC_PollForConversion
                0x00000000       0x80 ./ZHONX_III/Drivers/STM32F4xx_HAL_Driver/Src/stm32f4xx_hal_adc.o
 .text.HAL_ADC_PollForEvent
                0x00000000       0x90 ./ZHONX_III/Drivers/STM32F4xx_HAL_Driver/Src/stm32f4xx_hal_adc.o
 .text.HAL_ADC_Start_IT
                0x00000000       0xfc ./ZHONX_III/Drivers/STM32F4xx_HAL_Driver/Src/stm32f4xx_hal_adc.o
 .text.HAL_ADC_Stop_IT
                0x00000000       0x50 ./ZHONX_III/Drivers/STM32F4xx_HAL_Driver/Src/stm32f4xx_hal_adc.o
 .text.HAL_ADC_IRQHandler
                0x00000000      0x25c ./ZHONX_III/Drivers/STM32F4xx_HAL_Driver/Src/stm32f4xx_hal_adc.o
 .text.HAL_ADC_GetValue
                0x00000000       0x1c ./ZHONX_III/Drivers/STM32F4xx_HAL_Driver/Src/stm32f4xx_hal_adc.o
 .text.HAL_ADC_LevelOutOfWindowCallback
                0x00000000       0x14 ./ZHONX_III/Drivers/STM32F4xx_HAL_Driver/Src/stm32f4xx_hal_adc.o
 .text.HAL_ADC_AnalogWDGConfig
                0x00000000       0xbc ./ZHONX_III/Drivers/STM32F4xx_HAL_Driver/Src/stm32f4xx_hal_adc.o
 .text.HAL_ADC_GetState
                0x00000000       0x1c ./ZHONX_III/Drivers/STM32F4xx_HAL_Driver/Src/stm32f4xx_hal_adc.o
 .text.HAL_ADC_GetError
                0x00000000       0x18 ./ZHONX_III/Drivers/STM32F4xx_HAL_Driver/Src/stm32f4xx_hal_adc.o
 .text          0x00000000        0x0 ./ZHONX_III/Drivers/STM32F4xx_HAL_Driver/Src/stm32f4xx_hal_adc_ex.o
 .data          0x00000000        0x0 ./ZHONX_III/Drivers/STM32F4xx_HAL_Driver/Src/stm32f4xx_hal_adc_ex.o
 .bss           0x00000000        0x0 ./ZHONX_III/Drivers/STM32F4xx_HAL_Driver/Src/stm32f4xx_hal_adc_ex.o
 .text.HAL_ADCEx_InjectedStart
                0x00000000      0x140 ./ZHONX_III/Drivers/STM32F4xx_HAL_Driver/Src/stm32f4xx_hal_adc_ex.o
 .text.HAL_ADCEx_InjectedStart_IT
                0x00000000      0x164 ./ZHONX_III/Drivers/STM32F4xx_HAL_Driver/Src/stm32f4xx_hal_adc_ex.o
 .text.HAL_ADCEx_InjectedStop
                0x00000000       0x30 ./ZHONX_III/Drivers/STM32F4xx_HAL_Driver/Src/stm32f4xx_hal_adc_ex.o
 .text.HAL_ADCEx_InjectedPollForConversion
                0x00000000       0x80 ./ZHONX_III/Drivers/STM32F4xx_HAL_Driver/Src/stm32f4xx_hal_adc_ex.o
 .text.HAL_ADCEx_InjectedStop_IT
                0x00000000       0x50 ./ZHONX_III/Drivers/STM32F4xx_HAL_Driver/Src/stm32f4xx_hal_adc_ex.o
 .text.HAL_ADCEx_InjectedGetValue
                0x00000000       0x70 ./ZHONX_III/Drivers/STM32F4xx_HAL_Driver/Src/stm32f4xx_hal_adc_ex.o
 .text.HAL_ADCEx_MultiModeStart_DMA
                0x00000000       0xf8 ./ZHONX_III/Drivers/STM32F4xx_HAL_Driver/Src/stm32f4xx_hal_adc_ex.o
 .text.HAL_ADCEx_MultiModeStop_DMA
                0x00000000       0x74 ./ZHONX_III/Drivers/STM32F4xx_HAL_Driver/Src/stm32f4xx_hal_adc_ex.o
 .text.HAL_ADCEx_MultiModeGetValue
                0x00000000       0x1c ./ZHONX_III/Drivers/STM32F4xx_HAL_Driver/Src/stm32f4xx_hal_adc_ex.o
 .text.HAL_ADCEx_InjectedConvCpltCallback
                0x00000000       0x14 ./ZHONX_III/Drivers/STM32F4xx_HAL_Driver/Src/stm32f4xx_hal_adc_ex.o
 .text.HAL_ADCEx_InjectedConfigChannel
                0x00000000      0x2e0 ./ZHONX_III/Drivers/STM32F4xx_HAL_Driver/Src/stm32f4xx_hal_adc_ex.o
 .text.HAL_ADCEx_MultiModeConfigChannel
                0x00000000       0x88 ./ZHONX_III/Drivers/STM32F4xx_HAL_Driver/Src/stm32f4xx_hal_adc_ex.o
 .text.ADC_MultiModeDMAConvCplt
                0x00000000       0x38 ./ZHONX_III/Drivers/STM32F4xx_HAL_Driver/Src/stm32f4xx_hal_adc_ex.o
 .text.ADC_MultiModeDMAHalfConvCplt
                0x00000000       0x1c ./ZHONX_III/Drivers/STM32F4xx_HAL_Driver/Src/stm32f4xx_hal_adc_ex.o
 .text.ADC_MultiModeDMAError
                0x00000000       0x30 ./ZHONX_III/Drivers/STM32F4xx_HAL_Driver/Src/stm32f4xx_hal_adc_ex.o
 .debug_info    0x00000000      0xa90 ./ZHONX_III/Drivers/STM32F4xx_HAL_Driver/Src/stm32f4xx_hal_adc_ex.o
 .debug_abbrev  0x00000000      0x20d ./ZHONX_III/Drivers/STM32F4xx_HAL_Driver/Src/stm32f4xx_hal_adc_ex.o
 .debug_aranges
                0x00000000       0x90 ./ZHONX_III/Drivers/STM32F4xx_HAL_Driver/Src/stm32f4xx_hal_adc_ex.o
 .debug_ranges  0x00000000       0x80 ./ZHONX_III/Drivers/STM32F4xx_HAL_Driver/Src/stm32f4xx_hal_adc_ex.o
 .debug_line    0x00000000      0x53e ./ZHONX_III/Drivers/STM32F4xx_HAL_Driver/Src/stm32f4xx_hal_adc_ex.o
 .debug_str     0x00000000      0xaca ./ZHONX_III/Drivers/STM32F4xx_HAL_Driver/Src/stm32f4xx_hal_adc_ex.o
 .comment       0x00000000       0x71 ./ZHONX_III/Drivers/STM32F4xx_HAL_Driver/Src/stm32f4xx_hal_adc_ex.o
 .ARM.attributes
                0x00000000       0x39 ./ZHONX_III/Drivers/STM32F4xx_HAL_Driver/Src/stm32f4xx_hal_adc_ex.o
 .debug_frame   0x00000000      0x1d0 ./ZHONX_III/Drivers/STM32F4xx_HAL_Driver/Src/stm32f4xx_hal_adc_ex.o
 .text          0x00000000        0x0 ./ZHONX_III/Drivers/STM32F4xx_HAL_Driver/Src/stm32f4xx_hal_cortex.o
 .data          0x00000000        0x0 ./ZHONX_III/Drivers/STM32F4xx_HAL_Driver/Src/stm32f4xx_hal_cortex.o
 .bss           0x00000000        0x0 ./ZHONX_III/Drivers/STM32F4xx_HAL_Driver/Src/stm32f4xx_hal_cortex.o
 .text.NVIC_DisableIRQ
                0x00000000       0x34 ./ZHONX_III/Drivers/STM32F4xx_HAL_Driver/Src/stm32f4xx_hal_cortex.o
 .text.NVIC_GetPendingIRQ
                0x00000000       0x40 ./ZHONX_III/Drivers/STM32F4xx_HAL_Driver/Src/stm32f4xx_hal_cortex.o
 .text.NVIC_SetPendingIRQ
                0x00000000       0x34 ./ZHONX_III/Drivers/STM32F4xx_HAL_Driver/Src/stm32f4xx_hal_cortex.o
 .text.NVIC_GetActive
                0x00000000       0x40 ./ZHONX_III/Drivers/STM32F4xx_HAL_Driver/Src/stm32f4xx_hal_cortex.o
 .text.NVIC_GetPriority
                0x00000000       0x50 ./ZHONX_III/Drivers/STM32F4xx_HAL_Driver/Src/stm32f4xx_hal_cortex.o
 .text.NVIC_DecodePriority
                0x00000000       0x6c ./ZHONX_III/Drivers/STM32F4xx_HAL_Driver/Src/stm32f4xx_hal_cortex.o
 .text.NVIC_SystemReset
                0x00000000       0x28 ./ZHONX_III/Drivers/STM32F4xx_HAL_Driver/Src/stm32f4xx_hal_cortex.o
 .text.HAL_NVIC_DisableIRQ
                0x00000000       0x1c ./ZHONX_III/Drivers/STM32F4xx_HAL_Driver/Src/stm32f4xx_hal_cortex.o
 .text.HAL_NVIC_SystemReset
                0x00000000        0xc ./ZHONX_III/Drivers/STM32F4xx_HAL_Driver/Src/stm32f4xx_hal_cortex.o
 .text.HAL_NVIC_GetPriorityGrouping
                0x00000000       0x10 ./ZHONX_III/Drivers/STM32F4xx_HAL_Driver/Src/stm32f4xx_hal_cortex.o
 .text.HAL_NVIC_GetPriority
                0x00000000       0x30 ./ZHONX_III/Drivers/STM32F4xx_HAL_Driver/Src/stm32f4xx_hal_cortex.o
 .text.HAL_NVIC_SetPendingIRQ
                0x00000000       0x1c ./ZHONX_III/Drivers/STM32F4xx_HAL_Driver/Src/stm32f4xx_hal_cortex.o
 .text.HAL_NVIC_GetPendingIRQ
                0x00000000       0x20 ./ZHONX_III/Drivers/STM32F4xx_HAL_Driver/Src/stm32f4xx_hal_cortex.o
 .text.HAL_NVIC_GetActive
                0x00000000       0x20 ./ZHONX_III/Drivers/STM32F4xx_HAL_Driver/Src/stm32f4xx_hal_cortex.o
 .text.HAL_SYSTICK_CLKSourceConfig
                0x00000000       0x38 ./ZHONX_III/Drivers/STM32F4xx_HAL_Driver/Src/stm32f4xx_hal_cortex.o
 .text          0x00000000        0x0 ./ZHONX_III/Drivers/STM32F4xx_HAL_Driver/Src/stm32f4xx_hal_dma.o
 .data          0x00000000        0x0 ./ZHONX_III/Drivers/STM32F4xx_HAL_Driver/Src/stm32f4xx_hal_dma.o
 .bss           0x00000000        0x0 ./ZHONX_III/Drivers/STM32F4xx_HAL_Driver/Src/stm32f4xx_hal_dma.o
 .text.HAL_DMA_DeInit
                0x00000000     0x1494 ./ZHONX_III/Drivers/STM32F4xx_HAL_Driver/Src/stm32f4xx_hal_dma.o
 .text.HAL_DMA_Start
                0x00000000       0x64 ./ZHONX_III/Drivers/STM32F4xx_HAL_Driver/Src/stm32f4xx_hal_dma.o
 .text.HAL_DMA_PollForTransfer
                0x00000000     0x3414 ./ZHONX_III/Drivers/STM32F4xx_HAL_Driver/Src/stm32f4xx_hal_dma.o
 .text.HAL_DMA_GetState
                0x00000000       0x1c ./ZHONX_III/Drivers/STM32F4xx_HAL_Driver/Src/stm32f4xx_hal_dma.o
 .text.HAL_DMA_GetError
                0x00000000       0x18 ./ZHONX_III/Drivers/STM32F4xx_HAL_Driver/Src/stm32f4xx_hal_dma.o
 .text          0x00000000        0x0 ./ZHONX_III/Drivers/STM32F4xx_HAL_Driver/Src/stm32f4xx_hal_dma_ex.o
 .data          0x00000000        0x0 ./ZHONX_III/Drivers/STM32F4xx_HAL_Driver/Src/stm32f4xx_hal_dma_ex.o
 .bss           0x00000000        0x0 ./ZHONX_III/Drivers/STM32F4xx_HAL_Driver/Src/stm32f4xx_hal_dma_ex.o
 .text.HAL_DMAEx_MultiBufferStart
                0x00000000       0xa0 ./ZHONX_III/Drivers/STM32F4xx_HAL_Driver/Src/stm32f4xx_hal_dma_ex.o
 .text.HAL_DMAEx_MultiBufferStart_IT
                0x00000000       0xf0 ./ZHONX_III/Drivers/STM32F4xx_HAL_Driver/Src/stm32f4xx_hal_dma_ex.o
 .text.HAL_DMAEx_ChangeMemory
                0x00000000       0x34 ./ZHONX_III/Drivers/STM32F4xx_HAL_Driver/Src/stm32f4xx_hal_dma_ex.o
 .text.DMA_MultiBufferSetConfig
                0x00000000       0x4c ./ZHONX_III/Drivers/STM32F4xx_HAL_Driver/Src/stm32f4xx_hal_dma_ex.o
 .debug_info    0x00000000      0x490 ./ZHONX_III/Drivers/STM32F4xx_HAL_Driver/Src/stm32f4xx_hal_dma_ex.o
 .debug_abbrev  0x00000000      0x156 ./ZHONX_III/Drivers/STM32F4xx_HAL_Driver/Src/stm32f4xx_hal_dma_ex.o
 .debug_aranges
                0x00000000       0x38 ./ZHONX_III/Drivers/STM32F4xx_HAL_Driver/Src/stm32f4xx_hal_dma_ex.o
 .debug_ranges  0x00000000       0x28 ./ZHONX_III/Drivers/STM32F4xx_HAL_Driver/Src/stm32f4xx_hal_dma_ex.o
 .debug_line    0x00000000      0x2c9 ./ZHONX_III/Drivers/STM32F4xx_HAL_Driver/Src/stm32f4xx_hal_dma_ex.o
 .debug_str     0x00000000      0x5b5 ./ZHONX_III/Drivers/STM32F4xx_HAL_Driver/Src/stm32f4xx_hal_dma_ex.o
 .comment       0x00000000       0x71 ./ZHONX_III/Drivers/STM32F4xx_HAL_Driver/Src/stm32f4xx_hal_dma_ex.o
 .ARM.attributes
                0x00000000       0x39 ./ZHONX_III/Drivers/STM32F4xx_HAL_Driver/Src/stm32f4xx_hal_dma_ex.o
 .debug_frame   0x00000000       0x88 ./ZHONX_III/Drivers/STM32F4xx_HAL_Driver/Src/stm32f4xx_hal_dma_ex.o
 .text          0x00000000        0x0 ./ZHONX_III/Drivers/STM32F4xx_HAL_Driver/Src/stm32f4xx_hal_flash.o
 .data          0x00000000        0x0 ./ZHONX_III/Drivers/STM32F4xx_HAL_Driver/Src/stm32f4xx_hal_flash.o
 .bss           0x00000000        0x0 ./ZHONX_III/Drivers/STM32F4xx_HAL_Driver/Src/stm32f4xx_hal_flash.o
 .text.HAL_FLASH_Program
                0x00000000       0xa8 ./ZHONX_III/Drivers/STM32F4xx_HAL_Driver/Src/stm32f4xx_hal_flash.o
 .text.HAL_FLASH_Program_IT
                0x00000000       0xa0 ./ZHONX_III/Drivers/STM32F4xx_HAL_Driver/Src/stm32f4xx_hal_flash.o
 .text.HAL_FLASH_IRQHandler
                0x00000000      0x164 ./ZHONX_III/Drivers/STM32F4xx_HAL_Driver/Src/stm32f4xx_hal_flash.o
 .text.HAL_FLASH_EndOfOperationCallback
                0x00000000       0x14 ./ZHONX_III/Drivers/STM32F4xx_HAL_Driver/Src/stm32f4xx_hal_flash.o
 .text.HAL_FLASH_OperationErrorCallback
                0x00000000       0x14 ./ZHONX_III/Drivers/STM32F4xx_HAL_Driver/Src/stm32f4xx_hal_flash.o
 .text.HAL_FLASH_Unlock
                0x00000000       0x34 ./ZHONX_III/Drivers/STM32F4xx_HAL_Driver/Src/stm32f4xx_hal_flash.o
 .text.HAL_FLASH_Lock
                0x00000000       0x20 ./ZHONX_III/Drivers/STM32F4xx_HAL_Driver/Src/stm32f4xx_hal_flash.o
 .text.HAL_FLASH_OB_Unlock
                0x00000000       0x38 ./ZHONX_III/Drivers/STM32F4xx_HAL_Driver/Src/stm32f4xx_hal_flash.o
 .text.HAL_FLASH_OB_Lock
                0x00000000       0x20 ./ZHONX_III/Drivers/STM32F4xx_HAL_Driver/Src/stm32f4xx_hal_flash.o
 .text.HAL_FLASH_OB_Launch
                0x00000000       0x28 ./ZHONX_III/Drivers/STM32F4xx_HAL_Driver/Src/stm32f4xx_hal_flash.o
 .text.HAL_FLASH_GetError
                0x00000000       0x18 ./ZHONX_III/Drivers/STM32F4xx_HAL_Driver/Src/stm32f4xx_hal_flash.o
 .text.FLASH_WaitForLastOperation
                0x00000000       0x64 ./ZHONX_III/Drivers/STM32F4xx_HAL_Driver/Src/stm32f4xx_hal_flash.o
 .text.FLASH_Program_DoubleWord
                0x00000000       0x48 ./ZHONX_III/Drivers/STM32F4xx_HAL_Driver/Src/stm32f4xx_hal_flash.o
 .text.FLASH_Program_Word
                0x00000000       0x44 ./ZHONX_III/Drivers/STM32F4xx_HAL_Driver/Src/stm32f4xx_hal_flash.o
 .text.FLASH_Program_HalfWord
                0x00000000       0x44 ./ZHONX_III/Drivers/STM32F4xx_HAL_Driver/Src/stm32f4xx_hal_flash.o
 .text.FLASH_Program_Byte
                0x00000000       0x40 ./ZHONX_III/Drivers/STM32F4xx_HAL_Driver/Src/stm32f4xx_hal_flash.o
 .text.FLASH_SetErrorCode
                0x00000000       0xb4 ./ZHONX_III/Drivers/STM32F4xx_HAL_Driver/Src/stm32f4xx_hal_flash.o
 .debug_info    0x00000000      0x578 ./ZHONX_III/Drivers/STM32F4xx_HAL_Driver/Src/stm32f4xx_hal_flash.o
 .debug_abbrev  0x00000000      0x1dd ./ZHONX_III/Drivers/STM32F4xx_HAL_Driver/Src/stm32f4xx_hal_flash.o
 .debug_aranges
                0x00000000       0xa0 ./ZHONX_III/Drivers/STM32F4xx_HAL_Driver/Src/stm32f4xx_hal_flash.o
 .debug_ranges  0x00000000       0x90 ./ZHONX_III/Drivers/STM32F4xx_HAL_Driver/Src/stm32f4xx_hal_flash.o
 .debug_line    0x00000000      0x419 ./ZHONX_III/Drivers/STM32F4xx_HAL_Driver/Src/stm32f4xx_hal_flash.o
 .debug_str     0x00000000      0x5d7 ./ZHONX_III/Drivers/STM32F4xx_HAL_Driver/Src/stm32f4xx_hal_flash.o
 .comment       0x00000000       0x71 ./ZHONX_III/Drivers/STM32F4xx_HAL_Driver/Src/stm32f4xx_hal_flash.o
 .ARM.attributes
                0x00000000       0x39 ./ZHONX_III/Drivers/STM32F4xx_HAL_Driver/Src/stm32f4xx_hal_flash.o
 .debug_frame   0x00000000      0x1e4 ./ZHONX_III/Drivers/STM32F4xx_HAL_Driver/Src/stm32f4xx_hal_flash.o
 COMMON         0x00000000       0x1c ./ZHONX_III/Drivers/STM32F4xx_HAL_Driver/Src/stm32f4xx_hal_flash.o
 .text          0x00000000        0x0 ./ZHONX_III/Drivers/STM32F4xx_HAL_Driver/Src/stm32f4xx_hal_flash_ex.o
 .data          0x00000000        0x0 ./ZHONX_III/Drivers/STM32F4xx_HAL_Driver/Src/stm32f4xx_hal_flash_ex.o
 .bss           0x00000000        0x0 ./ZHONX_III/Drivers/STM32F4xx_HAL_Driver/Src/stm32f4xx_hal_flash_ex.o
 .text.HAL_FLASHEx_Erase
                0x00000000       0xe8 ./ZHONX_III/Drivers/STM32F4xx_HAL_Driver/Src/stm32f4xx_hal_flash_ex.o
 .text.HAL_FLASHEx_Erase_IT
                0x00000000       0xac ./ZHONX_III/Drivers/STM32F4xx_HAL_Driver/Src/stm32f4xx_hal_flash_ex.o
 .text.HAL_FLASHEx_OBProgram
                0x00000000       0xe0 ./ZHONX_III/Drivers/STM32F4xx_HAL_Driver/Src/stm32f4xx_hal_flash_ex.o
 .text.HAL_FLASHEx_OBGetConfig
                0x00000000       0x44 ./ZHONX_III/Drivers/STM32F4xx_HAL_Driver/Src/stm32f4xx_hal_flash_ex.o
 .text.FLASH_MassErase
                0x00000000       0x50 ./ZHONX_III/Drivers/STM32F4xx_HAL_Driver/Src/stm32f4xx_hal_flash_ex.o
 .text.FLASH_Erase_Sector
                0x00000000       0xac ./ZHONX_III/Drivers/STM32F4xx_HAL_Driver/Src/stm32f4xx_hal_flash_ex.o
 .text.FLASH_OB_EnableWRP
                0x00000000       0x44 ./ZHONX_III/Drivers/STM32F4xx_HAL_Driver/Src/stm32f4xx_hal_flash_ex.o
 .text.FLASH_OB_DisableWRP
                0x00000000       0x40 ./ZHONX_III/Drivers/STM32F4xx_HAL_Driver/Src/stm32f4xx_hal_flash_ex.o
 .text.FLASH_OB_RDP_LevelConfig
                0x00000000       0x34 ./ZHONX_III/Drivers/STM32F4xx_HAL_Driver/Src/stm32f4xx_hal_flash_ex.o
 .text.FLASH_OB_UserConfig
                0x00000000       0x60 ./ZHONX_III/Drivers/STM32F4xx_HAL_Driver/Src/stm32f4xx_hal_flash_ex.o
 .text.FLASH_OB_BOR_LevelConfig
                0x00000000       0x3c ./ZHONX_III/Drivers/STM32F4xx_HAL_Driver/Src/stm32f4xx_hal_flash_ex.o
 .text.FLASH_OB_GetUser
                0x00000000       0x20 ./ZHONX_III/Drivers/STM32F4xx_HAL_Driver/Src/stm32f4xx_hal_flash_ex.o
 .text.FLASH_OB_GetWRP
                0x00000000       0x18 ./ZHONX_III/Drivers/STM32F4xx_HAL_Driver/Src/stm32f4xx_hal_flash_ex.o
 .text.FLASH_OB_GetRDP
                0x00000000       0x2c ./ZHONX_III/Drivers/STM32F4xx_HAL_Driver/Src/stm32f4xx_hal_flash_ex.o
 .text.FLASH_OB_GetBOR
                0x00000000       0x20 ./ZHONX_III/Drivers/STM32F4xx_HAL_Driver/Src/stm32f4xx_hal_flash_ex.o
 .debug_info    0x00000000      0x75a ./ZHONX_III/Drivers/STM32F4xx_HAL_Driver/Src/stm32f4xx_hal_flash_ex.o
 .debug_abbrev  0x00000000      0x250 ./ZHONX_III/Drivers/STM32F4xx_HAL_Driver/Src/stm32f4xx_hal_flash_ex.o
 .debug_aranges
                0x00000000       0x90 ./ZHONX_III/Drivers/STM32F4xx_HAL_Driver/Src/stm32f4xx_hal_flash_ex.o
 .debug_ranges  0x00000000       0x80 ./ZHONX_III/Drivers/STM32F4xx_HAL_Driver/Src/stm32f4xx_hal_flash_ex.o
 .debug_line    0x00000000      0x432 ./ZHONX_III/Drivers/STM32F4xx_HAL_Driver/Src/stm32f4xx_hal_flash_ex.o
 .debug_str     0x00000000      0x65c ./ZHONX_III/Drivers/STM32F4xx_HAL_Driver/Src/stm32f4xx_hal_flash_ex.o
 .comment       0x00000000       0x71 ./ZHONX_III/Drivers/STM32F4xx_HAL_Driver/Src/stm32f4xx_hal_flash_ex.o
 .ARM.attributes
                0x00000000       0x39 ./ZHONX_III/Drivers/STM32F4xx_HAL_Driver/Src/stm32f4xx_hal_flash_ex.o
 .debug_frame   0x00000000      0x1c8 ./ZHONX_III/Drivers/STM32F4xx_HAL_Driver/Src/stm32f4xx_hal_flash_ex.o
 .text          0x00000000        0x0 ./ZHONX_III/Drivers/STM32F4xx_HAL_Driver/Src/stm32f4xx_hal_flash_ramfunc.o
 .data          0x00000000        0x0 ./ZHONX_III/Drivers/STM32F4xx_HAL_Driver/Src/stm32f4xx_hal_flash_ramfunc.o
 .bss           0x00000000        0x0 ./ZHONX_III/Drivers/STM32F4xx_HAL_Driver/Src/stm32f4xx_hal_flash_ramfunc.o
 .debug_info    0x00000000       0x92 ./ZHONX_III/Drivers/STM32F4xx_HAL_Driver/Src/stm32f4xx_hal_flash_ramfunc.o
 .debug_abbrev  0x00000000       0x4b ./ZHONX_III/Drivers/STM32F4xx_HAL_Driver/Src/stm32f4xx_hal_flash_ramfunc.o
 .debug_aranges
                0x00000000       0x18 ./ZHONX_III/Drivers/STM32F4xx_HAL_Driver/Src/stm32f4xx_hal_flash_ramfunc.o
 .debug_line    0x00000000       0xfa ./ZHONX_III/Drivers/STM32F4xx_HAL_Driver/Src/stm32f4xx_hal_flash_ramfunc.o
 .debug_str     0x00000000      0x20c ./ZHONX_III/Drivers/STM32F4xx_HAL_Driver/Src/stm32f4xx_hal_flash_ramfunc.o
 .comment       0x00000000       0x71 ./ZHONX_III/Drivers/STM32F4xx_HAL_Driver/Src/stm32f4xx_hal_flash_ramfunc.o
 .ARM.attributes
                0x00000000       0x39 ./ZHONX_III/Drivers/STM32F4xx_HAL_Driver/Src/stm32f4xx_hal_flash_ramfunc.o
 .text          0x00000000        0x0 ./ZHONX_III/Drivers/STM32F4xx_HAL_Driver/Src/stm32f4xx_hal_gpio.o
 .data          0x00000000        0x0 ./ZHONX_III/Drivers/STM32F4xx_HAL_Driver/Src/stm32f4xx_hal_gpio.o
 .bss           0x00000000        0x0 ./ZHONX_III/Drivers/STM32F4xx_HAL_Driver/Src/stm32f4xx_hal_gpio.o
 .text.HAL_GPIO_DeInit
                0x00000000      0x13c ./ZHONX_III/Drivers/STM32F4xx_HAL_Driver/Src/stm32f4xx_hal_gpio.o
 .text.HAL_GPIO_ReadPin
                0x00000000       0x30 ./ZHONX_III/Drivers/STM32F4xx_HAL_Driver/Src/stm32f4xx_hal_gpio.o
 .text.HAL_GPIO_TogglePin
                0x00000000       0x24 ./ZHONX_III/Drivers/STM32F4xx_HAL_Driver/Src/stm32f4xx_hal_gpio.o
 .text.HAL_GPIO_LockPin
                0x00000000       0x50 ./ZHONX_III/Drivers/STM32F4xx_HAL_Driver/Src/stm32f4xx_hal_gpio.o
 .text.HAL_GPIO_EXTI_IRQHandler
                0x00000000       0x30 ./ZHONX_III/Drivers/STM32F4xx_HAL_Driver/Src/stm32f4xx_hal_gpio.o
 .text.HAL_GPIO_EXTI_Callback
                0x00000000       0x14 ./ZHONX_III/Drivers/STM32F4xx_HAL_Driver/Src/stm32f4xx_hal_gpio.o
 .text          0x00000000        0x0 ./ZHONX_III/Drivers/STM32F4xx_HAL_Driver/Src/stm32f4xx_hal_i2c.o
 .data          0x00000000        0x0 ./ZHONX_III/Drivers/STM32F4xx_HAL_Driver/Src/stm32f4xx_hal_i2c.o
 .bss           0x00000000        0x0 ./ZHONX_III/Drivers/STM32F4xx_HAL_Driver/Src/stm32f4xx_hal_i2c.o
 .text.HAL_I2C_DeInit
                0x00000000       0x54 ./ZHONX_III/Drivers/STM32F4xx_HAL_Driver/Src/stm32f4xx_hal_i2c.o
 .text.HAL_I2C_MspInit
                0x00000000       0x14 ./ZHONX_III/Drivers/STM32F4xx_HAL_Driver/Src/stm32f4xx_hal_i2c.o
 .text.HAL_I2C_MspDeInit
                0x00000000       0x14 ./ZHONX_III/Drivers/STM32F4xx_HAL_Driver/Src/stm32f4xx_hal_i2c.o
 .text.HAL_I2C_Master_Transmit
                0x00000000      0x164 ./ZHONX_III/Drivers/STM32F4xx_HAL_Driver/Src/stm32f4xx_hal_i2c.o
 .text.HAL_I2C_Master_Receive
                0x00000000      0x2f4 ./ZHONX_III/Drivers/STM32F4xx_HAL_Driver/Src/stm32f4xx_hal_i2c.o
 .text.HAL_I2C_Slave_Transmit
                0x00000000      0x194 ./ZHONX_III/Drivers/STM32F4xx_HAL_Driver/Src/stm32f4xx_hal_i2c.o
 .text.HAL_I2C_Slave_Receive
                0x00000000      0x178 ./ZHONX_III/Drivers/STM32F4xx_HAL_Driver/Src/stm32f4xx_hal_i2c.o
 .text.HAL_I2C_Master_Transmit_IT
                0x00000000       0xe0 ./ZHONX_III/Drivers/STM32F4xx_HAL_Driver/Src/stm32f4xx_hal_i2c.o
 .text.HAL_I2C_Master_Receive_IT
                0x00000000      0x160 ./ZHONX_III/Drivers/STM32F4xx_HAL_Driver/Src/stm32f4xx_hal_i2c.o
 .text.HAL_I2C_Slave_Transmit_IT
                0x00000000       0xb0 ./ZHONX_III/Drivers/STM32F4xx_HAL_Driver/Src/stm32f4xx_hal_i2c.o
 .text.HAL_I2C_Slave_Receive_IT
                0x00000000       0xb0 ./ZHONX_III/Drivers/STM32F4xx_HAL_Driver/Src/stm32f4xx_hal_i2c.o
 .text.HAL_I2C_Slave_Transmit_DMA
                0x00000000      0x13c ./ZHONX_III/Drivers/STM32F4xx_HAL_Driver/Src/stm32f4xx_hal_i2c.o
 .text.HAL_I2C_Slave_Receive_DMA
                0x00000000      0x100 ./ZHONX_III/Drivers/STM32F4xx_HAL_Driver/Src/stm32f4xx_hal_i2c.o
 .text.HAL_I2C_Mem_Write
                0x00000000      0x15c ./ZHONX_III/Drivers/STM32F4xx_HAL_Driver/Src/stm32f4xx_hal_i2c.o
 .text.HAL_I2C_Mem_Read
                0x00000000      0x2e4 ./ZHONX_III/Drivers/STM32F4xx_HAL_Driver/Src/stm32f4xx_hal_i2c.o
 .text.HAL_I2C_Mem_Write_IT
                0x00000000       0xd4 ./ZHONX_III/Drivers/STM32F4xx_HAL_Driver/Src/stm32f4xx_hal_i2c.o
 .text.HAL_I2C_Mem_Read_IT
                0x00000000      0x164 ./ZHONX_III/Drivers/STM32F4xx_HAL_Driver/Src/stm32f4xx_hal_i2c.o
 .text.HAL_I2C_Mem_Write_DMA
                0x00000000      0x100 ./ZHONX_III/Drivers/STM32F4xx_HAL_Driver/Src/stm32f4xx_hal_i2c.o
 .text.HAL_I2C_Mem_Read_DMA
                0x00000000      0x138 ./ZHONX_III/Drivers/STM32F4xx_HAL_Driver/Src/stm32f4xx_hal_i2c.o
 .text.HAL_I2C_IsDeviceReady
                0x00000000      0x200 ./ZHONX_III/Drivers/STM32F4xx_HAL_Driver/Src/stm32f4xx_hal_i2c.o
 .text.HAL_I2C_GetError
                0x00000000       0x1c ./ZHONX_III/Drivers/STM32F4xx_HAL_Driver/Src/stm32f4xx_hal_i2c.o
 .text.I2C_RequestMemoryWrite
                0x00000000       0xdc ./ZHONX_III/Drivers/STM32F4xx_HAL_Driver/Src/stm32f4xx_hal_i2c.o
 .text.I2C_RequestMemoryRead
                0x00000000      0x160 ./ZHONX_III/Drivers/STM32F4xx_HAL_Driver/Src/stm32f4xx_hal_i2c.o
 .text.I2C_DMASlaveTransmitCplt
                0x00000000       0xb8 ./ZHONX_III/Drivers/STM32F4xx_HAL_Driver/Src/stm32f4xx_hal_i2c.o
 .text.I2C_DMASlaveReceiveCplt
                0x00000000       0xc8 ./ZHONX_III/Drivers/STM32F4xx_HAL_Driver/Src/stm32f4xx_hal_i2c.o
 .text.I2C_DMAMemTransmitCplt
                0x00000000       0xb0 ./ZHONX_III/Drivers/STM32F4xx_HAL_Driver/Src/stm32f4xx_hal_i2c.o
 .text.I2C_DMAMemReceiveCplt
                0x00000000       0xa8 ./ZHONX_III/Drivers/STM32F4xx_HAL_Driver/Src/stm32f4xx_hal_i2c.o
 .text          0x00000000        0x0 ./ZHONX_III/Drivers/STM32F4xx_HAL_Driver/Src/stm32f4xx_hal_i2c_ex.o
 .data          0x00000000        0x0 ./ZHONX_III/Drivers/STM32F4xx_HAL_Driver/Src/stm32f4xx_hal_i2c_ex.o
 .bss           0x00000000        0x0 ./ZHONX_III/Drivers/STM32F4xx_HAL_Driver/Src/stm32f4xx_hal_i2c_ex.o
 .debug_info    0x00000000       0x92 ./ZHONX_III/Drivers/STM32F4xx_HAL_Driver/Src/stm32f4xx_hal_i2c_ex.o
 .debug_abbrev  0x00000000       0x4b ./ZHONX_III/Drivers/STM32F4xx_HAL_Driver/Src/stm32f4xx_hal_i2c_ex.o
 .debug_aranges
                0x00000000       0x18 ./ZHONX_III/Drivers/STM32F4xx_HAL_Driver/Src/stm32f4xx_hal_i2c_ex.o
 .debug_line    0x00000000       0xfa ./ZHONX_III/Drivers/STM32F4xx_HAL_Driver/Src/stm32f4xx_hal_i2c_ex.o
 .debug_str     0x00000000      0x205 ./ZHONX_III/Drivers/STM32F4xx_HAL_Driver/Src/stm32f4xx_hal_i2c_ex.o
 .comment       0x00000000       0x71 ./ZHONX_III/Drivers/STM32F4xx_HAL_Driver/Src/stm32f4xx_hal_i2c_ex.o
 .ARM.attributes
                0x00000000       0x39 ./ZHONX_III/Drivers/STM32F4xx_HAL_Driver/Src/stm32f4xx_hal_i2c_ex.o
 .text          0x00000000        0x0 ./ZHONX_III/Drivers/STM32F4xx_HAL_Driver/Src/stm32f4xx_hal_pwr.o
 .data          0x00000000        0x0 ./ZHONX_III/Drivers/STM32F4xx_HAL_Driver/Src/stm32f4xx_hal_pwr.o
 .bss           0x00000000        0x0 ./ZHONX_III/Drivers/STM32F4xx_HAL_Driver/Src/stm32f4xx_hal_pwr.o
 .text.HAL_PWR_DeInit
                0x00000000       0x28 ./ZHONX_III/Drivers/STM32F4xx_HAL_Driver/Src/stm32f4xx_hal_pwr.o
 .text.HAL_PWR_EnableBkUpAccess
                0x00000000       0x18 ./ZHONX_III/Drivers/STM32F4xx_HAL_Driver/Src/stm32f4xx_hal_pwr.o
 .text.HAL_PWR_DisableBkUpAccess
                0x00000000       0x18 ./ZHONX_III/Drivers/STM32F4xx_HAL_Driver/Src/stm32f4xx_hal_pwr.o
 .text.HAL_PWR_PVDConfig
                0x00000000       0xb0 ./ZHONX_III/Drivers/STM32F4xx_HAL_Driver/Src/stm32f4xx_hal_pwr.o
 .text.HAL_PWR_EnablePVD
                0x00000000       0x18 ./ZHONX_III/Drivers/STM32F4xx_HAL_Driver/Src/stm32f4xx_hal_pwr.o
 .text.HAL_PWR_DisablePVD
                0x00000000       0x18 ./ZHONX_III/Drivers/STM32F4xx_HAL_Driver/Src/stm32f4xx_hal_pwr.o
 .text.HAL_PWR_EnableWakeUpPin
                0x00000000       0x1c ./ZHONX_III/Drivers/STM32F4xx_HAL_Driver/Src/stm32f4xx_hal_pwr.o
 .text.HAL_PWR_DisableWakeUpPin
                0x00000000       0x1c ./ZHONX_III/Drivers/STM32F4xx_HAL_Driver/Src/stm32f4xx_hal_pwr.o
 .text.HAL_PWR_EnterSLEEPMode
                0x00000000       0x28 ./ZHONX_III/Drivers/STM32F4xx_HAL_Driver/Src/stm32f4xx_hal_pwr.o
 .text.HAL_PWR_EnterSTOPMode
                0x00000000       0x64 ./ZHONX_III/Drivers/STM32F4xx_HAL_Driver/Src/stm32f4xx_hal_pwr.o
 .text.HAL_PWR_EnterSTANDBYMode
                0x00000000       0x30 ./ZHONX_III/Drivers/STM32F4xx_HAL_Driver/Src/stm32f4xx_hal_pwr.o
 .text.HAL_PWR_PVD_IRQHandler
                0x00000000       0x24 ./ZHONX_III/Drivers/STM32F4xx_HAL_Driver/Src/stm32f4xx_hal_pwr.o
 .text.HAL_PWR_PVDCallback
                0x00000000        0xc ./ZHONX_III/Drivers/STM32F4xx_HAL_Driver/Src/stm32f4xx_hal_pwr.o
 .debug_info    0x00000000      0x6f7 ./ZHONX_III/Drivers/STM32F4xx_HAL_Driver/Src/stm32f4xx_hal_pwr.o
 .debug_abbrev  0x00000000      0x1ba ./ZHONX_III/Drivers/STM32F4xx_HAL_Driver/Src/stm32f4xx_hal_pwr.o
 .debug_aranges
                0x00000000       0x80 ./ZHONX_III/Drivers/STM32F4xx_HAL_Driver/Src/stm32f4xx_hal_pwr.o
 .debug_ranges  0x00000000       0x70 ./ZHONX_III/Drivers/STM32F4xx_HAL_Driver/Src/stm32f4xx_hal_pwr.o
 .debug_line    0x00000000      0x375 ./ZHONX_III/Drivers/STM32F4xx_HAL_Driver/Src/stm32f4xx_hal_pwr.o
 .debug_str     0x00000000      0x53c ./ZHONX_III/Drivers/STM32F4xx_HAL_Driver/Src/stm32f4xx_hal_pwr.o
 .comment       0x00000000       0x71 ./ZHONX_III/Drivers/STM32F4xx_HAL_Driver/Src/stm32f4xx_hal_pwr.o
 .ARM.attributes
                0x00000000       0x39 ./ZHONX_III/Drivers/STM32F4xx_HAL_Driver/Src/stm32f4xx_hal_pwr.o
 .debug_frame   0x00000000      0x160 ./ZHONX_III/Drivers/STM32F4xx_HAL_Driver/Src/stm32f4xx_hal_pwr.o
 .text          0x00000000        0x0 ./ZHONX_III/Drivers/STM32F4xx_HAL_Driver/Src/stm32f4xx_hal_pwr_ex.o
 .data          0x00000000        0x0 ./ZHONX_III/Drivers/STM32F4xx_HAL_Driver/Src/stm32f4xx_hal_pwr_ex.o
 .bss           0x00000000        0x0 ./ZHONX_III/Drivers/STM32F4xx_HAL_Driver/Src/stm32f4xx_hal_pwr_ex.o
 .text.HAL_PWREx_EnableBkUpReg
                0x00000000       0x4c ./ZHONX_III/Drivers/STM32F4xx_HAL_Driver/Src/stm32f4xx_hal_pwr_ex.o
 .text.HAL_PWREx_DisableBkUpReg
                0x00000000       0x4c ./ZHONX_III/Drivers/STM32F4xx_HAL_Driver/Src/stm32f4xx_hal_pwr_ex.o
 .text.HAL_PWREx_EnableFlashPowerDown
                0x00000000       0x18 ./ZHONX_III/Drivers/STM32F4xx_HAL_Driver/Src/stm32f4xx_hal_pwr_ex.o
 .text.HAL_PWREx_DisableFlashPowerDown
                0x00000000       0x18 ./ZHONX_III/Drivers/STM32F4xx_HAL_Driver/Src/stm32f4xx_hal_pwr_ex.o
 .debug_info    0x00000000      0x1ac ./ZHONX_III/Drivers/STM32F4xx_HAL_Driver/Src/stm32f4xx_hal_pwr_ex.o
 .debug_abbrev  0x00000000       0xda ./ZHONX_III/Drivers/STM32F4xx_HAL_Driver/Src/stm32f4xx_hal_pwr_ex.o
 .debug_aranges
                0x00000000       0x38 ./ZHONX_III/Drivers/STM32F4xx_HAL_Driver/Src/stm32f4xx_hal_pwr_ex.o
 .debug_ranges  0x00000000       0x28 ./ZHONX_III/Drivers/STM32F4xx_HAL_Driver/Src/stm32f4xx_hal_pwr_ex.o
 .debug_line    0x00000000      0x27c ./ZHONX_III/Drivers/STM32F4xx_HAL_Driver/Src/stm32f4xx_hal_pwr_ex.o
 .debug_str     0x00000000      0x2ec ./ZHONX_III/Drivers/STM32F4xx_HAL_Driver/Src/stm32f4xx_hal_pwr_ex.o
 .comment       0x00000000       0x71 ./ZHONX_III/Drivers/STM32F4xx_HAL_Driver/Src/stm32f4xx_hal_pwr_ex.o
 .ARM.attributes
                0x00000000       0x39 ./ZHONX_III/Drivers/STM32F4xx_HAL_Driver/Src/stm32f4xx_hal_pwr_ex.o
 .debug_frame   0x00000000       0x80 ./ZHONX_III/Drivers/STM32F4xx_HAL_Driver/Src/stm32f4xx_hal_pwr_ex.o
 .text          0x00000000        0x0 ./ZHONX_III/Drivers/STM32F4xx_HAL_Driver/Src/stm32f4xx_hal_rcc.o
 .data          0x00000000        0x0 ./ZHONX_III/Drivers/STM32F4xx_HAL_Driver/Src/stm32f4xx_hal_rcc.o
 .bss           0x00000000        0x0 ./ZHONX_III/Drivers/STM32F4xx_HAL_Driver/Src/stm32f4xx_hal_rcc.o
 .text.HAL_RCC_DeInit
                0x00000000       0x78 ./ZHONX_III/Drivers/STM32F4xx_HAL_Driver/Src/stm32f4xx_hal_rcc.o
 .text.HAL_RCC_MCOConfig
                0x00000000       0xac ./ZHONX_III/Drivers/STM32F4xx_HAL_Driver/Src/stm32f4xx_hal_rcc.o
 .text.HAL_RCC_DisableCSS
                0x00000000       0x18 ./ZHONX_III/Drivers/STM32F4xx_HAL_Driver/Src/stm32f4xx_hal_rcc.o
 .text.HAL_RCC_GetOscConfig
                0x00000000      0x198 ./ZHONX_III/Drivers/STM32F4xx_HAL_Driver/Src/stm32f4xx_hal_rcc.o
 .text.HAL_RCC_GetClockConfig
                0x00000000       0x60 ./ZHONX_III/Drivers/STM32F4xx_HAL_Driver/Src/stm32f4xx_hal_rcc.o
 .text.HAL_RCC_NMI_IRQHandler
                0x00000000       0x24 ./ZHONX_III/Drivers/STM32F4xx_HAL_Driver/Src/stm32f4xx_hal_rcc.o
 .text.HAL_RCC_CCSCallback
                0x00000000        0xc ./ZHONX_III/Drivers/STM32F4xx_HAL_Driver/Src/stm32f4xx_hal_rcc.o
 .text          0x00000000        0x0 ./ZHONX_III/Drivers/STM32F4xx_HAL_Driver/Src/stm32f4xx_hal_rcc_ex.o
 .data          0x00000000        0x0 ./ZHONX_III/Drivers/STM32F4xx_HAL_Driver/Src/stm32f4xx_hal_rcc_ex.o
 .bss           0x00000000        0x0 ./ZHONX_III/Drivers/STM32F4xx_HAL_Driver/Src/stm32f4xx_hal_rcc_ex.o
 .text.HAL_RCCEx_PeriphCLKConfig
                0x00000000      0x1d4 ./ZHONX_III/Drivers/STM32F4xx_HAL_Driver/Src/stm32f4xx_hal_rcc_ex.o
 .text.HAL_RCCEx_GetPeriphCLKConfig
                0x00000000       0x98 ./ZHONX_III/Drivers/STM32F4xx_HAL_Driver/Src/stm32f4xx_hal_rcc_ex.o
 .debug_info    0x00000000      0x5a6 ./ZHONX_III/Drivers/STM32F4xx_HAL_Driver/Src/stm32f4xx_hal_rcc_ex.o
 .debug_abbrev  0x00000000      0x199 ./ZHONX_III/Drivers/STM32F4xx_HAL_Driver/Src/stm32f4xx_hal_rcc_ex.o
 .debug_aranges
                0x00000000       0x28 ./ZHONX_III/Drivers/STM32F4xx_HAL_Driver/Src/stm32f4xx_hal_rcc_ex.o
 .debug_ranges  0x00000000       0x18 ./ZHONX_III/Drivers/STM32F4xx_HAL_Driver/Src/stm32f4xx_hal_rcc_ex.o
 .debug_line    0x00000000      0x305 ./ZHONX_III/Drivers/STM32F4xx_HAL_Driver/Src/stm32f4xx_hal_rcc_ex.o
 .debug_str     0x00000000      0x465 ./ZHONX_III/Drivers/STM32F4xx_HAL_Driver/Src/stm32f4xx_hal_rcc_ex.o
 .comment       0x00000000       0x71 ./ZHONX_III/Drivers/STM32F4xx_HAL_Driver/Src/stm32f4xx_hal_rcc_ex.o
 .ARM.attributes
                0x00000000       0x39 ./ZHONX_III/Drivers/STM32F4xx_HAL_Driver/Src/stm32f4xx_hal_rcc_ex.o
 .debug_frame   0x00000000       0x4c ./ZHONX_III/Drivers/STM32F4xx_HAL_Driver/Src/stm32f4xx_hal_rcc_ex.o
 .text          0x00000000        0x0 ./ZHONX_III/Drivers/STM32F4xx_HAL_Driver/Src/stm32f4xx_hal_tim.o
 .data          0x00000000        0x0 ./ZHONX_III/Drivers/STM32F4xx_HAL_Driver/Src/stm32f4xx_hal_tim.o
 .bss           0x00000000        0x0 ./ZHONX_III/Drivers/STM32F4xx_HAL_Driver/Src/stm32f4xx_hal_tim.o
 .text.HAL_TIM_Base_DeInit
                0x00000000       0x60 ./ZHONX_III/Drivers/STM32F4xx_HAL_Driver/Src/stm32f4xx_hal_tim.o
 .text.HAL_TIM_Base_MspInit
                0x00000000       0x14 ./ZHONX_III/Drivers/STM32F4xx_HAL_Driver/Src/stm32f4xx_hal_tim.o
 .text.HAL_TIM_Base_MspDeInit
                0x00000000       0x14 ./ZHONX_III/Drivers/STM32F4xx_HAL_Driver/Src/stm32f4xx_hal_tim.o
 .text.HAL_TIM_Base_Start
                0x00000000       0x38 ./ZHONX_III/Drivers/STM32F4xx_HAL_Driver/Src/stm32f4xx_hal_tim.o
 .text.HAL_TIM_Base_Stop
                0x00000000       0x58 ./ZHONX_III/Drivers/STM32F4xx_HAL_Driver/Src/stm32f4xx_hal_tim.o
 .text.HAL_TIM_Base_Stop_IT
                0x00000000       0x58 ./ZHONX_III/Drivers/STM32F4xx_HAL_Driver/Src/stm32f4xx_hal_tim.o
 .text.HAL_TIM_Base_Start_DMA
                0x00000000       0x98 ./ZHONX_III/Drivers/STM32F4xx_HAL_Driver/Src/stm32f4xx_hal_tim.o
 .text.HAL_TIM_Base_Stop_DMA
                0x00000000       0x60 ./ZHONX_III/Drivers/STM32F4xx_HAL_Driver/Src/stm32f4xx_hal_tim.o
 .text.HAL_TIM_OC_Init
                0x00000000       0x50 ./ZHONX_III/Drivers/STM32F4xx_HAL_Driver/Src/stm32f4xx_hal_tim.o
 .text.HAL_TIM_OC_DeInit
                0x00000000       0x60 ./ZHONX_III/Drivers/STM32F4xx_HAL_Driver/Src/stm32f4xx_hal_tim.o
 .text.HAL_TIM_OC_MspInit
                0x00000000       0x14 ./ZHONX_III/Drivers/STM32F4xx_HAL_Driver/Src/stm32f4xx_hal_tim.o
 .text.HAL_TIM_OC_MspDeInit
                0x00000000       0x14 ./ZHONX_III/Drivers/STM32F4xx_HAL_Driver/Src/stm32f4xx_hal_tim.o
 .text.HAL_TIM_OC_Start
                0x00000000       0x68 ./ZHONX_III/Drivers/STM32F4xx_HAL_Driver/Src/stm32f4xx_hal_tim.o
 .text.HAL_TIM_OC_Stop
                0x00000000       0xa8 ./ZHONX_III/Drivers/STM32F4xx_HAL_Driver/Src/stm32f4xx_hal_tim.o
 .text.HAL_TIM_OC_Start_IT
                0x00000000       0xf4 ./ZHONX_III/Drivers/STM32F4xx_HAL_Driver/Src/stm32f4xx_hal_tim.o
 .text.HAL_TIM_OC_Stop_IT
                0x00000000      0x134 ./ZHONX_III/Drivers/STM32F4xx_HAL_Driver/Src/stm32f4xx_hal_tim.o
 .text.HAL_TIM_OC_Start_DMA
                0x00000000      0x1c4 ./ZHONX_III/Drivers/STM32F4xx_HAL_Driver/Src/stm32f4xx_hal_tim.o
 .text.HAL_TIM_OC_Stop_DMA
                0x00000000      0x13c ./ZHONX_III/Drivers/STM32F4xx_HAL_Driver/Src/stm32f4xx_hal_tim.o
 .text.HAL_TIM_PWM_DeInit
                0x00000000       0x60 ./ZHONX_III/Drivers/STM32F4xx_HAL_Driver/Src/stm32f4xx_hal_tim.o
 .text.HAL_TIM_PWM_MspInit
                0x00000000       0x14 ./ZHONX_III/Drivers/STM32F4xx_HAL_Driver/Src/stm32f4xx_hal_tim.o
 .text.HAL_TIM_PWM_MspDeInit
                0x00000000       0x14 ./ZHONX_III/Drivers/STM32F4xx_HAL_Driver/Src/stm32f4xx_hal_tim.o
 .text.HAL_TIM_PWM_Start_IT
                0x00000000       0xf4 ./ZHONX_III/Drivers/STM32F4xx_HAL_Driver/Src/stm32f4xx_hal_tim.o
 .text.HAL_TIM_PWM_Stop_IT
                0x00000000      0x134 ./ZHONX_III/Drivers/STM32F4xx_HAL_Driver/Src/stm32f4xx_hal_tim.o
 .text.HAL_TIM_PWM_Start_DMA
                0x00000000      0x1c4 ./ZHONX_III/Drivers/STM32F4xx_HAL_Driver/Src/stm32f4xx_hal_tim.o
 .text.HAL_TIM_PWM_Stop_DMA
                0x00000000      0x13c ./ZHONX_III/Drivers/STM32F4xx_HAL_Driver/Src/stm32f4xx_hal_tim.o
 .text.HAL_TIM_IC_Init
                0x00000000       0x50 ./ZHONX_III/Drivers/STM32F4xx_HAL_Driver/Src/stm32f4xx_hal_tim.o
 .text.HAL_TIM_IC_DeInit
                0x00000000       0x60 ./ZHONX_III/Drivers/STM32F4xx_HAL_Driver/Src/stm32f4xx_hal_tim.o
 .text.HAL_TIM_IC_MspInit
                0x00000000       0x14 ./ZHONX_III/Drivers/STM32F4xx_HAL_Driver/Src/stm32f4xx_hal_tim.o
 .text.HAL_TIM_IC_MspDeInit
                0x00000000       0x14 ./ZHONX_III/Drivers/STM32F4xx_HAL_Driver/Src/stm32f4xx_hal_tim.o
 .text.HAL_TIM_IC_Start
                0x00000000       0x34 ./ZHONX_III/Drivers/STM32F4xx_HAL_Driver/Src/stm32f4xx_hal_tim.o
 .text.HAL_TIM_IC_Stop
                0x00000000       0x54 ./ZHONX_III/Drivers/STM32F4xx_HAL_Driver/Src/stm32f4xx_hal_tim.o
 .text.HAL_TIM_IC_Start_IT
                0x00000000       0xc0 ./ZHONX_III/Drivers/STM32F4xx_HAL_Driver/Src/stm32f4xx_hal_tim.o
 .text.HAL_TIM_IC_Stop_IT
                0x00000000       0xe0 ./ZHONX_III/Drivers/STM32F4xx_HAL_Driver/Src/stm32f4xx_hal_tim.o
 .text.HAL_TIM_IC_Start_DMA
                0x00000000      0x190 ./ZHONX_III/Drivers/STM32F4xx_HAL_Driver/Src/stm32f4xx_hal_tim.o
 .text.HAL_TIM_IC_Stop_DMA
                0x00000000       0xe8 ./ZHONX_III/Drivers/STM32F4xx_HAL_Driver/Src/stm32f4xx_hal_tim.o
 .text.HAL_TIM_OnePulse_Init
                0x00000000       0x70 ./ZHONX_III/Drivers/STM32F4xx_HAL_Driver/Src/stm32f4xx_hal_tim.o
 .text.HAL_TIM_OnePulse_DeInit
                0x00000000       0x60 ./ZHONX_III/Drivers/STM32F4xx_HAL_Driver/Src/stm32f4xx_hal_tim.o
 .text.HAL_TIM_OnePulse_MspInit
                0x00000000       0x14 ./ZHONX_III/Drivers/STM32F4xx_HAL_Driver/Src/stm32f4xx_hal_tim.o
 .text.HAL_TIM_OnePulse_MspDeInit
                0x00000000       0x14 ./ZHONX_III/Drivers/STM32F4xx_HAL_Driver/Src/stm32f4xx_hal_tim.o
 .text.HAL_TIM_OnePulse_Start
                0x00000000       0x68 ./ZHONX_III/Drivers/STM32F4xx_HAL_Driver/Src/stm32f4xx_hal_tim.o
 .text.HAL_TIM_OnePulse_Stop
                0x00000000       0xb8 ./ZHONX_III/Drivers/STM32F4xx_HAL_Driver/Src/stm32f4xx_hal_tim.o
 .text.HAL_TIM_OnePulse_Start_IT
                0x00000000       0x88 ./ZHONX_III/Drivers/STM32F4xx_HAL_Driver/Src/stm32f4xx_hal_tim.o
 .text.HAL_TIM_OnePulse_Stop_IT
                0x00000000       0xd8 ./ZHONX_III/Drivers/STM32F4xx_HAL_Driver/Src/stm32f4xx_hal_tim.o
 .text.HAL_TIM_Encoder_DeInit
                0x00000000       0x60 ./ZHONX_III/Drivers/STM32F4xx_HAL_Driver/Src/stm32f4xx_hal_tim.o
 .text.HAL_TIM_Encoder_MspInit
                0x00000000       0x14 ./ZHONX_III/Drivers/STM32F4xx_HAL_Driver/Src/stm32f4xx_hal_tim.o
 .text.HAL_TIM_Encoder_MspDeInit
                0x00000000       0x14 ./ZHONX_III/Drivers/STM32F4xx_HAL_Driver/Src/stm32f4xx_hal_tim.o
 .text.HAL_TIM_Encoder_Stop
                0x00000000       0x90 ./ZHONX_III/Drivers/STM32F4xx_HAL_Driver/Src/stm32f4xx_hal_tim.o
 .text.HAL_TIM_Encoder_Start_IT
                0x00000000       0xb0 ./ZHONX_III/Drivers/STM32F4xx_HAL_Driver/Src/stm32f4xx_hal_tim.o
 .text.HAL_TIM_Encoder_Stop_IT
                0x00000000       0xd4 ./ZHONX_III/Drivers/STM32F4xx_HAL_Driver/Src/stm32f4xx_hal_tim.o
 .text.HAL_TIM_Encoder_Start_DMA
                0x00000000      0x1a8 ./ZHONX_III/Drivers/STM32F4xx_HAL_Driver/Src/stm32f4xx_hal_tim.o
 .text.HAL_TIM_Encoder_Stop_DMA
                0x00000000       0xd4 ./ZHONX_III/Drivers/STM32F4xx_HAL_Driver/Src/stm32f4xx_hal_tim.o
 .text.HAL_TIM_OC_ConfigChannel
                0x00000000       0xc0 ./ZHONX_III/Drivers/STM32F4xx_HAL_Driver/Src/stm32f4xx_hal_tim.o
 .text.HAL_TIM_IC_ConfigChannel
                0x00000000      0x138 ./ZHONX_III/Drivers/STM32F4xx_HAL_Driver/Src/stm32f4xx_hal_tim.o
 .text.HAL_TIM_OnePulse_ConfigChannel
                0x00000000      0x180 ./ZHONX_III/Drivers/STM32F4xx_HAL_Driver/Src/stm32f4xx_hal_tim.o
 .text.HAL_TIM_DMABurst_WriteStart
                0x00000000      0x1e4 ./ZHONX_III/Drivers/STM32F4xx_HAL_Driver/Src/stm32f4xx_hal_tim.o
 .text.HAL_TIM_DMABurst_WriteStop
                0x00000000       0x2c ./ZHONX_III/Drivers/STM32F4xx_HAL_Driver/Src/stm32f4xx_hal_tim.o
 .text.HAL_TIM_DMABurst_ReadStart
                0x00000000      0x1e4 ./ZHONX_III/Drivers/STM32F4xx_HAL_Driver/Src/stm32f4xx_hal_tim.o
 .text.HAL_TIM_DMABurst_ReadStop
                0x00000000       0x2c ./ZHONX_III/Drivers/STM32F4xx_HAL_Driver/Src/stm32f4xx_hal_tim.o
 .text.HAL_TIM_GenerateEvent
                0x00000000       0x50 ./ZHONX_III/Drivers/STM32F4xx_HAL_Driver/Src/stm32f4xx_hal_tim.o
 .text.HAL_TIM_ConfigOCrefClear
                0x00000000      0x154 ./ZHONX_III/Drivers/STM32F4xx_HAL_Driver/Src/stm32f4xx_hal_tim.o
 .text.HAL_TIM_ConfigTI1Input
                0x00000000       0x3c ./ZHONX_III/Drivers/STM32F4xx_HAL_Driver/Src/stm32f4xx_hal_tim.o
 .text.HAL_TIM_SlaveConfigSynchronization
                0x00000000      0x150 ./ZHONX_III/Drivers/STM32F4xx_HAL_Driver/Src/stm32f4xx_hal_tim.o
 .text.HAL_TIM_ReadCapturedValue
                0x00000000       0xa4 ./ZHONX_III/Drivers/STM32F4xx_HAL_Driver/Src/stm32f4xx_hal_tim.o
 .text.HAL_TIM_PeriodElapsedCallback
                0x00000000       0x14 ./ZHONX_III/Drivers/STM32F4xx_HAL_Driver/Src/stm32f4xx_hal_tim.o
 .text.HAL_TIM_ErrorCallback
                0x00000000       0x14 ./ZHONX_III/Drivers/STM32F4xx_HAL_Driver/Src/stm32f4xx_hal_tim.o
 .text.HAL_TIM_Base_GetState
                0x00000000       0x1c ./ZHONX_III/Drivers/STM32F4xx_HAL_Driver/Src/stm32f4xx_hal_tim.o
 .text.HAL_TIM_OC_GetState
                0x00000000       0x1c ./ZHONX_III/Drivers/STM32F4xx_HAL_Driver/Src/stm32f4xx_hal_tim.o
 .text.HAL_TIM_PWM_GetState
                0x00000000       0x1c ./ZHONX_III/Drivers/STM32F4xx_HAL_Driver/Src/stm32f4xx_hal_tim.o
 .text.HAL_TIM_IC_GetState
                0x00000000       0x1c ./ZHONX_III/Drivers/STM32F4xx_HAL_Driver/Src/stm32f4xx_hal_tim.o
 .text.HAL_TIM_OnePulse_GetState
                0x00000000       0x1c ./ZHONX_III/Drivers/STM32F4xx_HAL_Driver/Src/stm32f4xx_hal_tim.o
 .text.HAL_TIM_Encoder_GetState
                0x00000000       0x1c ./ZHONX_III/Drivers/STM32F4xx_HAL_Driver/Src/stm32f4xx_hal_tim.o
 .text.HAL_TIM_DMAError
                0x00000000       0x24 ./ZHONX_III/Drivers/STM32F4xx_HAL_Driver/Src/stm32f4xx_hal_tim.o
 .text.HAL_TIM_DMADelayPulseCplt
                0x00000000       0x24 ./ZHONX_III/Drivers/STM32F4xx_HAL_Driver/Src/stm32f4xx_hal_tim.o
 .text.HAL_TIM_DMACaptureCplt
                0x00000000       0x24 ./ZHONX_III/Drivers/STM32F4xx_HAL_Driver/Src/stm32f4xx_hal_tim.o
 .text.TIM_DMAPeriodElapsedCplt
                0x00000000       0x24 ./ZHONX_III/Drivers/STM32F4xx_HAL_Driver/Src/stm32f4xx_hal_tim.o
 .text.TIM_DMATriggerCplt
                0x00000000       0x24 ./ZHONX_III/Drivers/STM32F4xx_HAL_Driver/Src/stm32f4xx_hal_tim.o
 .text.TIM_TI1_SetConfig
                0x00000000       0xf0 ./ZHONX_III/Drivers/STM32F4xx_HAL_Driver/Src/stm32f4xx_hal_tim.o
 .text.TIM_TI2_SetConfig
                0x00000000       0x7c ./ZHONX_III/Drivers/STM32F4xx_HAL_Driver/Src/stm32f4xx_hal_tim.o
 .text.TIM_TI3_SetConfig
                0x00000000       0x78 ./ZHONX_III/Drivers/STM32F4xx_HAL_Driver/Src/stm32f4xx_hal_tim.o
 .text.TIM_TI4_SetConfig
                0x00000000       0x7c ./ZHONX_III/Drivers/STM32F4xx_HAL_Driver/Src/stm32f4xx_hal_tim.o
 .text          0x00000000        0x0 ./ZHONX_III/Drivers/STM32F4xx_HAL_Driver/Src/stm32f4xx_hal_tim_ex.o
 .data          0x00000000        0x0 ./ZHONX_III/Drivers/STM32F4xx_HAL_Driver/Src/stm32f4xx_hal_tim_ex.o
 .bss           0x00000000        0x0 ./ZHONX_III/Drivers/STM32F4xx_HAL_Driver/Src/stm32f4xx_hal_tim_ex.o
 .text.HAL_TIMEx_HallSensor_Init
                0x00000000      0x11c ./ZHONX_III/Drivers/STM32F4xx_HAL_Driver/Src/stm32f4xx_hal_tim_ex.o
 .text.HAL_TIMEx_HallSensor_DeInit
                0x00000000       0x60 ./ZHONX_III/Drivers/STM32F4xx_HAL_Driver/Src/stm32f4xx_hal_tim_ex.o
 .text.HAL_TIMEx_HallSensor_MspInit
                0x00000000       0x14 ./ZHONX_III/Drivers/STM32F4xx_HAL_Driver/Src/stm32f4xx_hal_tim_ex.o
 .text.HAL_TIMEx_HallSensor_MspDeInit
                0x00000000       0x14 ./ZHONX_III/Drivers/STM32F4xx_HAL_Driver/Src/stm32f4xx_hal_tim_ex.o
 .text.HAL_TIMEx_HallSensor_Start
                0x00000000       0x30 ./ZHONX_III/Drivers/STM32F4xx_HAL_Driver/Src/stm32f4xx_hal_tim_ex.o
 .text.HAL_TIMEx_HallSensor_Stop
                0x00000000       0x50 ./ZHONX_III/Drivers/STM32F4xx_HAL_Driver/Src/stm32f4xx_hal_tim_ex.o
 .text.HAL_TIMEx_HallSensor_Start_IT
                0x00000000       0x40 ./ZHONX_III/Drivers/STM32F4xx_HAL_Driver/Src/stm32f4xx_hal_tim_ex.o
 .text.HAL_TIMEx_HallSensor_Stop_IT
                0x00000000       0x60 ./ZHONX_III/Drivers/STM32F4xx_HAL_Driver/Src/stm32f4xx_hal_tim_ex.o
 .text.HAL_TIMEx_HallSensor_Start_DMA
                0x00000000       0xa8 ./ZHONX_III/Drivers/STM32F4xx_HAL_Driver/Src/stm32f4xx_hal_tim_ex.o
 .text.HAL_TIMEx_HallSensor_Stop_DMA
                0x00000000       0x60 ./ZHONX_III/Drivers/STM32F4xx_HAL_Driver/Src/stm32f4xx_hal_tim_ex.o
 .text.HAL_TIMEx_OCN_Start
                0x00000000       0x44 ./ZHONX_III/Drivers/STM32F4xx_HAL_Driver/Src/stm32f4xx_hal_tim_ex.o
 .text.HAL_TIMEx_OCN_Stop
                0x00000000       0x84 ./ZHONX_III/Drivers/STM32F4xx_HAL_Driver/Src/stm32f4xx_hal_tim_ex.o
 .text.HAL_TIMEx_OCN_Start_IT
                0x00000000       0xd0 ./ZHONX_III/Drivers/STM32F4xx_HAL_Driver/Src/stm32f4xx_hal_tim_ex.o
 .text.HAL_TIMEx_OCN_Stop_IT
                0x00000000      0x110 ./ZHONX_III/Drivers/STM32F4xx_HAL_Driver/Src/stm32f4xx_hal_tim_ex.o
 .text.HAL_TIMEx_OCN_Start_DMA
                0x00000000      0x1a0 ./ZHONX_III/Drivers/STM32F4xx_HAL_Driver/Src/stm32f4xx_hal_tim_ex.o
 .text.HAL_TIMEx_OCN_Stop_DMA
                0x00000000      0x118 ./ZHONX_III/Drivers/STM32F4xx_HAL_Driver/Src/stm32f4xx_hal_tim_ex.o
 .text.HAL_TIMEx_PWMN_Start
                0x00000000       0x44 ./ZHONX_III/Drivers/STM32F4xx_HAL_Driver/Src/stm32f4xx_hal_tim_ex.o
 .text.HAL_TIMEx_PWMN_Stop
                0x00000000       0x84 ./ZHONX_III/Drivers/STM32F4xx_HAL_Driver/Src/stm32f4xx_hal_tim_ex.o
 .text.HAL_TIMEx_PWMN_Start_IT
                0x00000000       0xe0 ./ZHONX_III/Drivers/STM32F4xx_HAL_Driver/Src/stm32f4xx_hal_tim_ex.o
 .text.HAL_TIMEx_PWMN_Stop_IT
                0x00000000      0x120 ./ZHONX_III/Drivers/STM32F4xx_HAL_Driver/Src/stm32f4xx_hal_tim_ex.o
 .text.HAL_TIMEx_PWMN_Start_DMA
                0x00000000      0x1a0 ./ZHONX_III/Drivers/STM32F4xx_HAL_Driver/Src/stm32f4xx_hal_tim_ex.o
 .text.HAL_TIMEx_PWMN_Stop_DMA
                0x00000000      0x118 ./ZHONX_III/Drivers/STM32F4xx_HAL_Driver/Src/stm32f4xx_hal_tim_ex.o
 .text.HAL_TIMEx_OnePulseN_Start
                0x00000000       0x34 ./ZHONX_III/Drivers/STM32F4xx_HAL_Driver/Src/stm32f4xx_hal_tim_ex.o
 .text.HAL_TIMEx_OnePulseN_Stop
                0x00000000       0x84 ./ZHONX_III/Drivers/STM32F4xx_HAL_Driver/Src/stm32f4xx_hal_tim_ex.o
 .text.HAL_TIMEx_OnePulseN_Start_IT
                0x00000000       0x54 ./ZHONX_III/Drivers/STM32F4xx_HAL_Driver/Src/stm32f4xx_hal_tim_ex.o
 .text.HAL_TIMEx_OnePulseN_Stop_IT
                0x00000000       0xa4 ./ZHONX_III/Drivers/STM32F4xx_HAL_Driver/Src/stm32f4xx_hal_tim_ex.o
 .text.HAL_TIMEx_ConfigCommutationEvent
                0x00000000       0xa0 ./ZHONX_III/Drivers/STM32F4xx_HAL_Driver/Src/stm32f4xx_hal_tim_ex.o
 .text.HAL_TIMEx_ConfigCommutationEvent_IT
                0x00000000       0xb0 ./ZHONX_III/Drivers/STM32F4xx_HAL_Driver/Src/stm32f4xx_hal_tim_ex.o
 .text.HAL_TIMEx_ConfigCommutationEvent_DMA
                0x00000000       0xc8 ./ZHONX_III/Drivers/STM32F4xx_HAL_Driver/Src/stm32f4xx_hal_tim_ex.o
 .text.HAL_TIMEx_RemapConfig
                0x00000000       0x48 ./ZHONX_III/Drivers/STM32F4xx_HAL_Driver/Src/stm32f4xx_hal_tim_ex.o
 .text.HAL_TIMEx_HallSensor_GetState
                0x00000000       0x1c ./ZHONX_III/Drivers/STM32F4xx_HAL_Driver/Src/stm32f4xx_hal_tim_ex.o
 .text.HAL_TIMEx_DMACommutationCplt
                0x00000000       0x24 ./ZHONX_III/Drivers/STM32F4xx_HAL_Driver/Src/stm32f4xx_hal_tim_ex.o
 .text.TIM_CCxNChannelCmd
                0x00000000       0x44 ./ZHONX_III/Drivers/STM32F4xx_HAL_Driver/Src/stm32f4xx_hal_tim_ex.o
 .text          0x00000000        0x0 ./ZHONX_III/Drivers/STM32F4xx_HAL_Driver/Src/stm32f4xx_hal_uart.o
 .data          0x00000000        0x0 ./ZHONX_III/Drivers/STM32F4xx_HAL_Driver/Src/stm32f4xx_hal_uart.o
 .bss           0x00000000        0x0 ./ZHONX_III/Drivers/STM32F4xx_HAL_Driver/Src/stm32f4xx_hal_uart.o
 .text.HAL_HalfDuplex_Init
                0x00000000       0x9c ./ZHONX_III/Drivers/STM32F4xx_HAL_Driver/Src/stm32f4xx_hal_uart.o
 .text.HAL_LIN_Init
                0x00000000       0xc0 ./ZHONX_III/Drivers/STM32F4xx_HAL_Driver/Src/stm32f4xx_hal_uart.o
 .text.HAL_MultiProcessor_Init
                0x00000000       0xd4 ./ZHONX_III/Drivers/STM32F4xx_HAL_Driver/Src/stm32f4xx_hal_uart.o
 .text.HAL_UART_DeInit
                0x00000000       0x44 ./ZHONX_III/Drivers/STM32F4xx_HAL_Driver/Src/stm32f4xx_hal_uart.o
 .text.HAL_UART_MspInit
                0x00000000       0x14 ./ZHONX_III/Drivers/STM32F4xx_HAL_Driver/Src/stm32f4xx_hal_uart.o
 .text.HAL_UART_MspDeInit
                0x00000000       0x14 ./ZHONX_III/Drivers/STM32F4xx_HAL_Driver/Src/stm32f4xx_hal_uart.o
 .text.HAL_UART_Transmit
                0x00000000      0x154 ./ZHONX_III/Drivers/STM32F4xx_HAL_Driver/Src/stm32f4xx_hal_uart.o
 .text.HAL_UART_Receive
                0x00000000      0x174 ./ZHONX_III/Drivers/STM32F4xx_HAL_Driver/Src/stm32f4xx_hal_uart.o
 .text.HAL_UART_Transmit_IT
                0x00000000       0xd0 ./ZHONX_III/Drivers/STM32F4xx_HAL_Driver/Src/stm32f4xx_hal_uart.o
 .text.HAL_UART_Receive_IT
                0x00000000       0xd0 ./ZHONX_III/Drivers/STM32F4xx_HAL_Driver/Src/stm32f4xx_hal_uart.o
 .text.HAL_UART_Transmit_DMA
                0x00000000       0xec ./ZHONX_III/Drivers/STM32F4xx_HAL_Driver/Src/stm32f4xx_hal_uart.o
 .text.HAL_UART_Receive_DMA
                0x00000000       0xe8 ./ZHONX_III/Drivers/STM32F4xx_HAL_Driver/Src/stm32f4xx_hal_uart.o
 .text.HAL_UART_DMAPause
                0x00000000       0x9c ./ZHONX_III/Drivers/STM32F4xx_HAL_Driver/Src/stm32f4xx_hal_uart.o
 .text.HAL_UART_DMAResume
                0x00000000       0xb4 ./ZHONX_III/Drivers/STM32F4xx_HAL_Driver/Src/stm32f4xx_hal_uart.o
 .text.HAL_UART_DMAStop
                0x00000000       0x60 ./ZHONX_III/Drivers/STM32F4xx_HAL_Driver/Src/stm32f4xx_hal_uart.o
 .text.HAL_UART_IRQHandler
                0x00000000      0x1d0 ./ZHONX_III/Drivers/STM32F4xx_HAL_Driver/Src/stm32f4xx_hal_uart.o
 .text.HAL_UART_TxCpltCallback
                0x00000000       0x14 ./ZHONX_III/Drivers/STM32F4xx_HAL_Driver/Src/stm32f4xx_hal_uart.o
 .text.HAL_UART_TxHalfCpltCallback
                0x00000000       0x14 ./ZHONX_III/Drivers/STM32F4xx_HAL_Driver/Src/stm32f4xx_hal_uart.o
 .text.HAL_UART_RxCpltCallback
                0x00000000       0x14 ./ZHONX_III/Drivers/STM32F4xx_HAL_Driver/Src/stm32f4xx_hal_uart.o
 .text.HAL_UART_RxHalfCpltCallback
                0x00000000       0x14 ./ZHONX_III/Drivers/STM32F4xx_HAL_Driver/Src/stm32f4xx_hal_uart.o
 .text.HAL_UART_ErrorCallback
                0x00000000       0x14 ./ZHONX_III/Drivers/STM32F4xx_HAL_Driver/Src/stm32f4xx_hal_uart.o
 .text.HAL_LIN_SendBreak
                0x00000000       0x54 ./ZHONX_III/Drivers/STM32F4xx_HAL_Driver/Src/stm32f4xx_hal_uart.o
 .text.HAL_MultiProcessor_EnterMuteMode
                0x00000000       0x54 ./ZHONX_III/Drivers/STM32F4xx_HAL_Driver/Src/stm32f4xx_hal_uart.o
 .text.HAL_MultiProcessor_ExitMuteMode
                0x00000000       0x54 ./ZHONX_III/Drivers/STM32F4xx_HAL_Driver/Src/stm32f4xx_hal_uart.o
 .text.HAL_HalfDuplex_EnableTransmitter
                0x00000000       0x68 ./ZHONX_III/Drivers/STM32F4xx_HAL_Driver/Src/stm32f4xx_hal_uart.o
 .text.HAL_HalfDuplex_EnableReceiver
                0x00000000       0x68 ./ZHONX_III/Drivers/STM32F4xx_HAL_Driver/Src/stm32f4xx_hal_uart.o
 .text.HAL_UART_GetState
                0x00000000       0x1c ./ZHONX_III/Drivers/STM32F4xx_HAL_Driver/Src/stm32f4xx_hal_uart.o
 .text.HAL_UART_GetError
                0x00000000       0x1c ./ZHONX_III/Drivers/STM32F4xx_HAL_Driver/Src/stm32f4xx_hal_uart.o
 .text.UART_DMATransmitCplt
                0x00000000       0x88 ./ZHONX_III/Drivers/STM32F4xx_HAL_Driver/Src/stm32f4xx_hal_uart.o
 .text.UART_DMATxHalfCplt
                0x00000000       0x1c ./ZHONX_III/Drivers/STM32F4xx_HAL_Driver/Src/stm32f4xx_hal_uart.o
 .text.UART_DMAReceiveCplt
                0x00000000       0x5c ./ZHONX_III/Drivers/STM32F4xx_HAL_Driver/Src/stm32f4xx_hal_uart.o
 .text.UART_DMARxHalfCplt
                0x00000000       0x1c ./ZHONX_III/Drivers/STM32F4xx_HAL_Driver/Src/stm32f4xx_hal_uart.o
 .text.UART_DMAError
                0x00000000       0x44 ./ZHONX_III/Drivers/STM32F4xx_HAL_Driver/Src/stm32f4xx_hal_uart.o
 .text.UART_WaitOnFlagUntilTimeout
                0x00000000      0x134 ./ZHONX_III/Drivers/STM32F4xx_HAL_Driver/Src/stm32f4xx_hal_uart.o
 .text.UART_Transmit_IT
                0x00000000      0x104 ./ZHONX_III/Drivers/STM32F4xx_HAL_Driver/Src/stm32f4xx_hal_uart.o
 .text.UART_Receive_IT
                0x00000000      0x128 ./ZHONX_III/Drivers/STM32F4xx_HAL_Driver/Src/stm32f4xx_hal_uart.o
 .text          0x00000000       0x14 ./ZHONX_III/Drivers/CMSIS/Device/ST/STM32F4xx/Source/Templates/gcc/startup_stm32f405xx.o
 .data          0x00000000        0x0 ./ZHONX_III/Drivers/CMSIS/Device/ST/STM32F4xx/Source/Templates/gcc/startup_stm32f405xx.o
 .bss           0x00000000        0x0 ./ZHONX_III/Drivers/CMSIS/Device/ST/STM32F4xx/Source/Templates/gcc/startup_stm32f405xx.o
 .text          0x00000000        0x0 ./ZHONX_III/Drivers/CMSIS/Device/ST/STM32F4xx/Source/Templates/system_stm32f4xx.o
 .data          0x00000000        0x0 ./ZHONX_III/Drivers/CMSIS/Device/ST/STM32F4xx/Source/Templates/system_stm32f4xx.o
 .bss           0x00000000        0x0 ./ZHONX_III/Drivers/CMSIS/Device/ST/STM32F4xx/Source/Templates/system_stm32f4xx.o
 .data.AHBPrescTable
                0x00000000       0x10 ./ZHONX_III/Drivers/CMSIS/Device/ST/STM32F4xx/Source/Templates/system_stm32f4xx.o
 .text.SystemCoreClockUpdate
                0x00000000       0xf4 ./ZHONX_III/Drivers/CMSIS/Device/ST/STM32F4xx/Source/Templates/system_stm32f4xx.o
 .text          0x00000000        0x0 ./ZHONX_III/DSP_lib/ControllerFunctions/arm_pid_init_f32.o
 .data          0x00000000        0x0 ./ZHONX_III/DSP_lib/ControllerFunctions/arm_pid_init_f32.o
 .bss           0x00000000        0x0 ./ZHONX_III/DSP_lib/ControllerFunctions/arm_pid_init_f32.o
 .text          0x00000000        0x0 ./ZHONX_III/DSP_lib/ControllerFunctions/arm_pid_init_q15.o
 .data          0x00000000        0x0 ./ZHONX_III/DSP_lib/ControllerFunctions/arm_pid_init_q15.o
 .bss           0x00000000        0x0 ./ZHONX_III/DSP_lib/ControllerFunctions/arm_pid_init_q15.o
 .text.arm_pid_init_q15
                0x00000000       0xb0 ./ZHONX_III/DSP_lib/ControllerFunctions/arm_pid_init_q15.o
 .debug_info    0x00000000      0x2cf ./ZHONX_III/DSP_lib/ControllerFunctions/arm_pid_init_q15.o
 .debug_abbrev  0x00000000      0x139 ./ZHONX_III/DSP_lib/ControllerFunctions/arm_pid_init_q15.o
 .debug_aranges
                0x00000000       0x20 ./ZHONX_III/DSP_lib/ControllerFunctions/arm_pid_init_q15.o
 .debug_ranges  0x00000000       0x10 ./ZHONX_III/DSP_lib/ControllerFunctions/arm_pid_init_q15.o
 .debug_line    0x00000000      0x198 ./ZHONX_III/DSP_lib/ControllerFunctions/arm_pid_init_q15.o
 .debug_str     0x00000000      0x29e ./ZHONX_III/DSP_lib/ControllerFunctions/arm_pid_init_q15.o
 .comment       0x00000000       0x71 ./ZHONX_III/DSP_lib/ControllerFunctions/arm_pid_init_q15.o
 .ARM.attributes
                0x00000000       0x39 ./ZHONX_III/DSP_lib/ControllerFunctions/arm_pid_init_q15.o
 .debug_frame   0x00000000       0x30 ./ZHONX_III/DSP_lib/ControllerFunctions/arm_pid_init_q15.o
 .text          0x00000000        0x0 ./ZHONX_III/DSP_lib/ControllerFunctions/arm_pid_init_q31.o
 .data          0x00000000        0x0 ./ZHONX_III/DSP_lib/ControllerFunctions/arm_pid_init_q31.o
 .bss           0x00000000        0x0 ./ZHONX_III/DSP_lib/ControllerFunctions/arm_pid_init_q31.o
 .text.arm_pid_init_q31
                0x00000000       0x9c ./ZHONX_III/DSP_lib/ControllerFunctions/arm_pid_init_q31.o
 .debug_info    0x00000000      0x282 ./ZHONX_III/DSP_lib/ControllerFunctions/arm_pid_init_q31.o
 .debug_abbrev  0x00000000      0x12a ./ZHONX_III/DSP_lib/ControllerFunctions/arm_pid_init_q31.o
 .debug_aranges
                0x00000000       0x20 ./ZHONX_III/DSP_lib/ControllerFunctions/arm_pid_init_q31.o
 .debug_ranges  0x00000000       0x10 ./ZHONX_III/DSP_lib/ControllerFunctions/arm_pid_init_q31.o
 .debug_line    0x00000000      0x197 ./ZHONX_III/DSP_lib/ControllerFunctions/arm_pid_init_q31.o
 .debug_str     0x00000000      0x270 ./ZHONX_III/DSP_lib/ControllerFunctions/arm_pid_init_q31.o
 .comment       0x00000000       0x71 ./ZHONX_III/DSP_lib/ControllerFunctions/arm_pid_init_q31.o
 .ARM.attributes
                0x00000000       0x39 ./ZHONX_III/DSP_lib/ControllerFunctions/arm_pid_init_q31.o
 .debug_frame   0x00000000       0x30 ./ZHONX_III/DSP_lib/ControllerFunctions/arm_pid_init_q31.o
 .text          0x00000000        0x0 ./ZHONX_III/DSP_lib/ControllerFunctions/arm_pid_reset_f32.o
 .data          0x00000000        0x0 ./ZHONX_III/DSP_lib/ControllerFunctions/arm_pid_reset_f32.o
 .bss           0x00000000        0x0 ./ZHONX_III/DSP_lib/ControllerFunctions/arm_pid_reset_f32.o
 .text.arm_pid_reset_f32
                0x00000000       0x1c ./ZHONX_III/DSP_lib/ControllerFunctions/arm_pid_reset_f32.o
 .debug_info    0x00000000      0x13e ./ZHONX_III/DSP_lib/ControllerFunctions/arm_pid_reset_f32.o
 .debug_abbrev  0x00000000       0xa6 ./ZHONX_III/DSP_lib/ControllerFunctions/arm_pid_reset_f32.o
 .debug_aranges
                0x00000000       0x20 ./ZHONX_III/DSP_lib/ControllerFunctions/arm_pid_reset_f32.o
 .debug_ranges  0x00000000       0x10 ./ZHONX_III/DSP_lib/ControllerFunctions/arm_pid_reset_f32.o
 .debug_line    0x00000000       0xbf ./ZHONX_III/DSP_lib/ControllerFunctions/arm_pid_reset_f32.o
 .debug_str     0x00000000      0x233 ./ZHONX_III/DSP_lib/ControllerFunctions/arm_pid_reset_f32.o
 .comment       0x00000000       0x71 ./ZHONX_III/DSP_lib/ControllerFunctions/arm_pid_reset_f32.o
 .ARM.attributes
                0x00000000       0x39 ./ZHONX_III/DSP_lib/ControllerFunctions/arm_pid_reset_f32.o
 .debug_frame   0x00000000       0x30 ./ZHONX_III/DSP_lib/ControllerFunctions/arm_pid_reset_f32.o
 .text          0x00000000        0x0 ./ZHONX_III/DSP_lib/ControllerFunctions/arm_pid_reset_q15.o
 .data          0x00000000        0x0 ./ZHONX_III/DSP_lib/ControllerFunctions/arm_pid_reset_q15.o
 .bss           0x00000000        0x0 ./ZHONX_III/DSP_lib/ControllerFunctions/arm_pid_reset_q15.o
 .text.arm_pid_reset_q15
                0x00000000       0x1c ./ZHONX_III/DSP_lib/ControllerFunctions/arm_pid_reset_q15.o
 .debug_info    0x00000000      0x16a ./ZHONX_III/DSP_lib/ControllerFunctions/arm_pid_reset_q15.o
 .debug_abbrev  0x00000000       0xb3 ./ZHONX_III/DSP_lib/ControllerFunctions/arm_pid_reset_q15.o
 .debug_aranges
                0x00000000       0x20 ./ZHONX_III/DSP_lib/ControllerFunctions/arm_pid_reset_q15.o
 .debug_ranges  0x00000000       0x10 ./ZHONX_III/DSP_lib/ControllerFunctions/arm_pid_reset_q15.o
 .debug_line    0x00000000      0x14b ./ZHONX_III/DSP_lib/ControllerFunctions/arm_pid_reset_q15.o
 .debug_str     0x00000000      0x259 ./ZHONX_III/DSP_lib/ControllerFunctions/arm_pid_reset_q15.o
 .comment       0x00000000       0x71 ./ZHONX_III/DSP_lib/ControllerFunctions/arm_pid_reset_q15.o
 .ARM.attributes
                0x00000000       0x39 ./ZHONX_III/DSP_lib/ControllerFunctions/arm_pid_reset_q15.o
 .debug_frame   0x00000000       0x30 ./ZHONX_III/DSP_lib/ControllerFunctions/arm_pid_reset_q15.o
 .text          0x00000000        0x0 ./ZHONX_III/DSP_lib/ControllerFunctions/arm_pid_reset_q31.o
 .data          0x00000000        0x0 ./ZHONX_III/DSP_lib/ControllerFunctions/arm_pid_reset_q31.o
 .bss           0x00000000        0x0 ./ZHONX_III/DSP_lib/ControllerFunctions/arm_pid_reset_q31.o
 .text.arm_pid_reset_q31
                0x00000000       0x1c ./ZHONX_III/DSP_lib/ControllerFunctions/arm_pid_reset_q31.o
 .debug_info    0x00000000      0x154 ./ZHONX_III/DSP_lib/ControllerFunctions/arm_pid_reset_q31.o
 .debug_abbrev  0x00000000       0xb3 ./ZHONX_III/DSP_lib/ControllerFunctions/arm_pid_reset_q31.o
 .debug_aranges
                0x00000000       0x20 ./ZHONX_III/DSP_lib/ControllerFunctions/arm_pid_reset_q31.o
 .debug_ranges  0x00000000       0x10 ./ZHONX_III/DSP_lib/ControllerFunctions/arm_pid_reset_q31.o
 .debug_line    0x00000000      0x14b ./ZHONX_III/DSP_lib/ControllerFunctions/arm_pid_reset_q31.o
 .debug_str     0x00000000      0x241 ./ZHONX_III/DSP_lib/ControllerFunctions/arm_pid_reset_q31.o
 .comment       0x00000000       0x71 ./ZHONX_III/DSP_lib/ControllerFunctions/arm_pid_reset_q31.o
 .ARM.attributes
                0x00000000       0x39 ./ZHONX_III/DSP_lib/ControllerFunctions/arm_pid_reset_q31.o
 .debug_frame   0x00000000       0x30 ./ZHONX_III/DSP_lib/ControllerFunctions/arm_pid_reset_q31.o
 .text          0x00000000        0x0 ./ZHONX_III/DSP_lib/ControllerFunctions/arm_sin_cos_f32.o
 .data          0x00000000        0x0 ./ZHONX_III/DSP_lib/ControllerFunctions/arm_sin_cos_f32.o
 .bss           0x00000000        0x0 ./ZHONX_III/DSP_lib/ControllerFunctions/arm_sin_cos_f32.o
 .rodata.cosTable
                0x00000000      0x5a0 ./ZHONX_III/DSP_lib/ControllerFunctions/arm_sin_cos_f32.o
 .rodata.sinTable
                0x00000000      0x5a0 ./ZHONX_III/DSP_lib/ControllerFunctions/arm_sin_cos_f32.o
 .text.arm_sin_cos_f32
                0x00000000      0x138 ./ZHONX_III/DSP_lib/ControllerFunctions/arm_sin_cos_f32.o
 .debug_info    0x00000000      0x1b0 ./ZHONX_III/DSP_lib/ControllerFunctions/arm_sin_cos_f32.o
 .debug_abbrev  0x00000000       0xbc ./ZHONX_III/DSP_lib/ControllerFunctions/arm_sin_cos_f32.o
 .debug_aranges
                0x00000000       0x20 ./ZHONX_III/DSP_lib/ControllerFunctions/arm_sin_cos_f32.o
 .debug_ranges  0x00000000       0x10 ./ZHONX_III/DSP_lib/ControllerFunctions/arm_sin_cos_f32.o
 .debug_line    0x00000000      0x15c ./ZHONX_III/DSP_lib/ControllerFunctions/arm_sin_cos_f32.o
 .debug_str     0x00000000      0x268 ./ZHONX_III/DSP_lib/ControllerFunctions/arm_sin_cos_f32.o
 .comment       0x00000000       0x71 ./ZHONX_III/DSP_lib/ControllerFunctions/arm_sin_cos_f32.o
 .ARM.attributes
                0x00000000       0x39 ./ZHONX_III/DSP_lib/ControllerFunctions/arm_sin_cos_f32.o
 .debug_frame   0x00000000       0x2c ./ZHONX_III/DSP_lib/ControllerFunctions/arm_sin_cos_f32.o
 .text          0x00000000        0x0 ./ZHONX_III/DSP_lib/ControllerFunctions/arm_sin_cos_q31.o
 .data          0x00000000        0x0 ./ZHONX_III/DSP_lib/ControllerFunctions/arm_sin_cos_q31.o
 .bss           0x00000000        0x0 ./ZHONX_III/DSP_lib/ControllerFunctions/arm_sin_cos_q31.o
 .rodata.sinTableQ31
                0x00000000      0x5a0 ./ZHONX_III/DSP_lib/ControllerFunctions/arm_sin_cos_q31.o
 .rodata.cosTableQ31
                0x00000000      0x5a0 ./ZHONX_III/DSP_lib/ControllerFunctions/arm_sin_cos_q31.o
 .text.arm_sin_cos_q31
                0x00000000      0x15c ./ZHONX_III/DSP_lib/ControllerFunctions/arm_sin_cos_q31.o
 .debug_info    0x00000000      0x29c ./ZHONX_III/DSP_lib/ControllerFunctions/arm_sin_cos_q31.o
 .debug_abbrev  0x00000000      0x124 ./ZHONX_III/DSP_lib/ControllerFunctions/arm_sin_cos_q31.o
 .debug_aranges
                0x00000000       0x20 ./ZHONX_III/DSP_lib/ControllerFunctions/arm_sin_cos_q31.o
 .debug_ranges  0x00000000       0x10 ./ZHONX_III/DSP_lib/ControllerFunctions/arm_sin_cos_q31.o
 .debug_line    0x00000000      0x189 ./ZHONX_III/DSP_lib/ControllerFunctions/arm_sin_cos_q31.o
 .debug_str     0x00000000      0x2b2 ./ZHONX_III/DSP_lib/ControllerFunctions/arm_sin_cos_q31.o
 .comment       0x00000000       0x71 ./ZHONX_III/DSP_lib/ControllerFunctions/arm_sin_cos_q31.o
 .ARM.attributes
                0x00000000       0x39 ./ZHONX_III/DSP_lib/ControllerFunctions/arm_sin_cos_q31.o
 .debug_frame   0x00000000       0x3c ./ZHONX_III/DSP_lib/ControllerFunctions/arm_sin_cos_q31.o
 .data          0x00000000        0x0 c:/eclipse-arm/gcc-4_8-2014/bin/../lib/gcc/arm-none-eabi/4.8.4/armv7e-m/fpu\libgcc.a(_arm_addsubdf3.o)
 .bss           0x00000000        0x0 c:/eclipse-arm/gcc-4_8-2014/bin/../lib/gcc/arm-none-eabi/4.8.4/armv7e-m/fpu\libgcc.a(_arm_addsubdf3.o)
 .data          0x00000000        0x0 c:/eclipse-arm/gcc-4_8-2014/bin/../lib/gcc/arm-none-eabi/4.8.4/armv7e-m/fpu\libgcc.a(_arm_muldivdf3.o)
 .bss           0x00000000        0x0 c:/eclipse-arm/gcc-4_8-2014/bin/../lib/gcc/arm-none-eabi/4.8.4/armv7e-m/fpu\libgcc.a(_arm_muldivdf3.o)
 .data          0x00000000        0x0 c:/eclipse-arm/gcc-4_8-2014/bin/../lib/gcc/arm-none-eabi/4.8.4/armv7e-m/fpu\libgcc.a(_arm_fixdfsi.o)
 .bss           0x00000000        0x0 c:/eclipse-arm/gcc-4_8-2014/bin/../lib/gcc/arm-none-eabi/4.8.4/armv7e-m/fpu\libgcc.a(_arm_fixdfsi.o)
 .data          0x00000000        0x0 c:/eclipse-arm/gcc-4_8-2014/bin/../lib/gcc/arm-none-eabi/4.8.4/armv7e-m/fpu\libgcc.a(_arm_truncdfsf2.o)
 .bss           0x00000000        0x0 c:/eclipse-arm/gcc-4_8-2014/bin/../lib/gcc/arm-none-eabi/4.8.4/armv7e-m/fpu\libgcc.a(_arm_truncdfsf2.o)
 .text          0x00000000        0x0 c:/eclipse-arm/gcc-4_8-2014/bin/../lib/gcc/arm-none-eabi/4.8.4/../../../../arm-none-eabi/lib/armv7e-m/fpu\libg.a(lib_a-exit.o)
 .data          0x00000000        0x0 c:/eclipse-arm/gcc-4_8-2014/bin/../lib/gcc/arm-none-eabi/4.8.4/../../../../arm-none-eabi/lib/armv7e-m/fpu\libg.a(lib_a-exit.o)
 .bss           0x00000000        0x0 c:/eclipse-arm/gcc-4_8-2014/bin/../lib/gcc/arm-none-eabi/4.8.4/../../../../arm-none-eabi/lib/armv7e-m/fpu\libg.a(lib_a-exit.o)
 .text.exit     0x00000000       0x20 c:/eclipse-arm/gcc-4_8-2014/bin/../lib/gcc/arm-none-eabi/4.8.4/../../../../arm-none-eabi/lib/armv7e-m/fpu\libg.a(lib_a-exit.o)
 .ARM.attributes
                0x00000000       0x34 c:/eclipse-arm/gcc-4_8-2014/bin/../lib/gcc/arm-none-eabi/4.8.4/../../../../arm-none-eabi/lib/armv7e-m/fpu\libg.a(lib_a-exit.o)
 .debug_frame   0x00000000       0x28 c:/eclipse-arm/gcc-4_8-2014/bin/../lib/gcc/arm-none-eabi/4.8.4/../../../../arm-none-eabi/lib/armv7e-m/fpu\libg.a(lib_a-exit.o)
 .text          0x00000000        0x0 c:/eclipse-arm/gcc-4_8-2014/bin/../lib/gcc/arm-none-eabi/4.8.4/../../../../arm-none-eabi/lib/armv7e-m/fpu\libg.a(lib_a-impure.o)
 .data          0x00000000        0x0 c:/eclipse-arm/gcc-4_8-2014/bin/../lib/gcc/arm-none-eabi/4.8.4/../../../../arm-none-eabi/lib/armv7e-m/fpu\libg.a(lib_a-impure.o)
 .bss           0x00000000        0x0 c:/eclipse-arm/gcc-4_8-2014/bin/../lib/gcc/arm-none-eabi/4.8.4/../../../../arm-none-eabi/lib/armv7e-m/fpu\libg.a(lib_a-impure.o)
 .text          0x00000000        0x0 c:/eclipse-arm/gcc-4_8-2014/bin/../lib/gcc/arm-none-eabi/4.8.4/../../../../arm-none-eabi/lib/armv7e-m/fpu\libg.a(lib_a-init.o)
 .data          0x00000000        0x0 c:/eclipse-arm/gcc-4_8-2014/bin/../lib/gcc/arm-none-eabi/4.8.4/../../../../arm-none-eabi/lib/armv7e-m/fpu\libg.a(lib_a-init.o)
 .bss           0x00000000        0x0 c:/eclipse-arm/gcc-4_8-2014/bin/../lib/gcc/arm-none-eabi/4.8.4/../../../../arm-none-eabi/lib/armv7e-m/fpu\libg.a(lib_a-init.o)
 .text          0x00000000        0x0 c:/eclipse-arm/gcc-4_8-2014/bin/../lib/gcc/arm-none-eabi/4.8.4/../../../../arm-none-eabi/lib/armv7e-m/fpu\libg.a(lib_a-memset.o)
 .data          0x00000000        0x0 c:/eclipse-arm/gcc-4_8-2014/bin/../lib/gcc/arm-none-eabi/4.8.4/../../../../arm-none-eabi/lib/armv7e-m/fpu\libg.a(lib_a-memset.o)
 .bss           0x00000000        0x0 c:/eclipse-arm/gcc-4_8-2014/bin/../lib/gcc/arm-none-eabi/4.8.4/../../../../arm-none-eabi/lib/armv7e-m/fpu\libg.a(lib_a-memset.o)
 .text          0x00000000        0x0 c:/eclipse-arm/gcc-4_8-2014/bin/../lib/gcc/arm-none-eabi/4.8.4/../../../../arm-none-eabi/lib/armv7e-m/fpu\libg.a(lib_a-reent.o)
 .data          0x00000000        0x0 c:/eclipse-arm/gcc-4_8-2014/bin/../lib/gcc/arm-none-eabi/4.8.4/../../../../arm-none-eabi/lib/armv7e-m/fpu\libg.a(lib_a-reent.o)
 .bss           0x00000000        0x0 c:/eclipse-arm/gcc-4_8-2014/bin/../lib/gcc/arm-none-eabi/4.8.4/../../../../arm-none-eabi/lib/armv7e-m/fpu\libg.a(lib_a-reent.o)
 .text.cleanup_glue
                0x00000000       0x1c c:/eclipse-arm/gcc-4_8-2014/bin/../lib/gcc/arm-none-eabi/4.8.4/../../../../arm-none-eabi/lib/armv7e-m/fpu\libg.a(lib_a-reent.o)
 .text._reclaim_reent
                0x00000000       0x90 c:/eclipse-arm/gcc-4_8-2014/bin/../lib/gcc/arm-none-eabi/4.8.4/../../../../arm-none-eabi/lib/armv7e-m/fpu\libg.a(lib_a-reent.o)
 .text          0x00000000        0x0 c:/eclipse-arm/gcc-4_8-2014/bin/../lib/gcc/arm-none-eabi/4.8.4/../../../../arm-none-eabi/lib/armv7e-m/fpu\libg.a(lib_a-sprintf.o)
 .data          0x00000000        0x0 c:/eclipse-arm/gcc-4_8-2014/bin/../lib/gcc/arm-none-eabi/4.8.4/../../../../arm-none-eabi/lib/armv7e-m/fpu\libg.a(lib_a-sprintf.o)
 .bss           0x00000000        0x0 c:/eclipse-arm/gcc-4_8-2014/bin/../lib/gcc/arm-none-eabi/4.8.4/../../../../arm-none-eabi/lib/armv7e-m/fpu\libg.a(lib_a-sprintf.o)
 .text._sprintf_r
                0x00000000       0x44 c:/eclipse-arm/gcc-4_8-2014/bin/../lib/gcc/arm-none-eabi/4.8.4/../../../../arm-none-eabi/lib/armv7e-m/fpu\libg.a(lib_a-sprintf.o)
 .text          0x00000000        0x0 c:/eclipse-arm/gcc-4_8-2014/bin/../lib/gcc/arm-none-eabi/4.8.4/../../../../arm-none-eabi/lib/armv7e-m/fpu\libg.a(lib_a-strlen.o)
 .data          0x00000000        0x0 c:/eclipse-arm/gcc-4_8-2014/bin/../lib/gcc/arm-none-eabi/4.8.4/../../../../arm-none-eabi/lib/armv7e-m/fpu\libg.a(lib_a-strlen.o)
 .bss           0x00000000        0x0 c:/eclipse-arm/gcc-4_8-2014/bin/../lib/gcc/arm-none-eabi/4.8.4/../../../../arm-none-eabi/lib/armv7e-m/fpu\libg.a(lib_a-strlen.o)
 .text          0x00000000        0x0 c:/eclipse-arm/gcc-4_8-2014/bin/../lib/gcc/arm-none-eabi/4.8.4/../../../../arm-none-eabi/lib/armv7e-m/fpu\libg.a(lib_a-svfprintf.o)
 .data          0x00000000        0x0 c:/eclipse-arm/gcc-4_8-2014/bin/../lib/gcc/arm-none-eabi/4.8.4/../../../../arm-none-eabi/lib/armv7e-m/fpu\libg.a(lib_a-svfprintf.o)
 .bss           0x00000000        0x0 c:/eclipse-arm/gcc-4_8-2014/bin/../lib/gcc/arm-none-eabi/4.8.4/../../../../arm-none-eabi/lib/armv7e-m/fpu\libg.a(lib_a-svfprintf.o)
 .text          0x00000000        0x0 c:/eclipse-arm/gcc-4_8-2014/bin/../lib/gcc/arm-none-eabi/4.8.4/../../../../arm-none-eabi/lib/armv7e-m/fpu\libg.a(lib_a-__call_atexit.o)
 .data          0x00000000        0x0 c:/eclipse-arm/gcc-4_8-2014/bin/../lib/gcc/arm-none-eabi/4.8.4/../../../../arm-none-eabi/lib/armv7e-m/fpu\libg.a(lib_a-__call_atexit.o)
 .bss           0x00000000        0x0 c:/eclipse-arm/gcc-4_8-2014/bin/../lib/gcc/arm-none-eabi/4.8.4/../../../../arm-none-eabi/lib/armv7e-m/fpu\libg.a(lib_a-__call_atexit.o)
 .text.__call_exitprocs
                0x00000000       0xf0 c:/eclipse-arm/gcc-4_8-2014/bin/../lib/gcc/arm-none-eabi/4.8.4/../../../../arm-none-eabi/lib/armv7e-m/fpu\libg.a(lib_a-__call_atexit.o)
 .text          0x00000000        0x0 c:/eclipse-arm/gcc-4_8-2014/bin/../lib/gcc/arm-none-eabi/4.8.4/../../../../arm-none-eabi/lib/armv7e-m/fpu\libg.a(lib_a-atexit.o)
 .data          0x00000000        0x0 c:/eclipse-arm/gcc-4_8-2014/bin/../lib/gcc/arm-none-eabi/4.8.4/../../../../arm-none-eabi/lib/armv7e-m/fpu\libg.a(lib_a-atexit.o)
 .bss           0x00000000        0x0 c:/eclipse-arm/gcc-4_8-2014/bin/../lib/gcc/arm-none-eabi/4.8.4/../../../../arm-none-eabi/lib/armv7e-m/fpu\libg.a(lib_a-atexit.o)
 .text          0x00000000        0x0 c:/eclipse-arm/gcc-4_8-2014/bin/../lib/gcc/arm-none-eabi/4.8.4/../../../../arm-none-eabi/lib/armv7e-m/fpu\libg.a(lib_a-dtoa.o)
 .data          0x00000000        0x0 c:/eclipse-arm/gcc-4_8-2014/bin/../lib/gcc/arm-none-eabi/4.8.4/../../../../arm-none-eabi/lib/armv7e-m/fpu\libg.a(lib_a-dtoa.o)
 .bss           0x00000000        0x0 c:/eclipse-arm/gcc-4_8-2014/bin/../lib/gcc/arm-none-eabi/4.8.4/../../../../arm-none-eabi/lib/armv7e-m/fpu\libg.a(lib_a-dtoa.o)
 .text          0x00000000        0x0 c:/eclipse-arm/gcc-4_8-2014/bin/../lib/gcc/arm-none-eabi/4.8.4/../../../../arm-none-eabi/lib/armv7e-m/fpu\libg.a(lib_a-fini.o)
 .data          0x00000000        0x0 c:/eclipse-arm/gcc-4_8-2014/bin/../lib/gcc/arm-none-eabi/4.8.4/../../../../arm-none-eabi/lib/armv7e-m/fpu\libg.a(lib_a-fini.o)
 .bss           0x00000000        0x0 c:/eclipse-arm/gcc-4_8-2014/bin/../lib/gcc/arm-none-eabi/4.8.4/../../../../arm-none-eabi/lib/armv7e-m/fpu\libg.a(lib_a-fini.o)
 .text          0x00000000        0x0 c:/eclipse-arm/gcc-4_8-2014/bin/../lib/gcc/arm-none-eabi/4.8.4/../../../../arm-none-eabi/lib/armv7e-m/fpu\libg.a(lib_a-freer.o)
 .data          0x00000000        0x0 c:/eclipse-arm/gcc-4_8-2014/bin/../lib/gcc/arm-none-eabi/4.8.4/../../../../arm-none-eabi/lib/armv7e-m/fpu\libg.a(lib_a-freer.o)
 .bss           0x00000000        0x0 c:/eclipse-arm/gcc-4_8-2014/bin/../lib/gcc/arm-none-eabi/4.8.4/../../../../arm-none-eabi/lib/armv7e-m/fpu\libg.a(lib_a-freer.o)
 .text          0x00000000        0x0 c:/eclipse-arm/gcc-4_8-2014/bin/../lib/gcc/arm-none-eabi/4.8.4/../../../../arm-none-eabi/lib/armv7e-m/fpu\libg.a(lib_a-locale.o)
 .data          0x00000000        0x0 c:/eclipse-arm/gcc-4_8-2014/bin/../lib/gcc/arm-none-eabi/4.8.4/../../../../arm-none-eabi/lib/armv7e-m/fpu\libg.a(lib_a-locale.o)
 .bss           0x00000000        0x0 c:/eclipse-arm/gcc-4_8-2014/bin/../lib/gcc/arm-none-eabi/4.8.4/../../../../arm-none-eabi/lib/armv7e-m/fpu\libg.a(lib_a-locale.o)
 .text._setlocale_r
                0x00000000       0x40 c:/eclipse-arm/gcc-4_8-2014/bin/../lib/gcc/arm-none-eabi/4.8.4/../../../../arm-none-eabi/lib/armv7e-m/fpu\libg.a(lib_a-locale.o)
 .text.__locale_charset
                0x00000000        0x8 c:/eclipse-arm/gcc-4_8-2014/bin/../lib/gcc/arm-none-eabi/4.8.4/../../../../arm-none-eabi/lib/armv7e-m/fpu\libg.a(lib_a-locale.o)
 .text.__locale_mb_cur_max
                0x00000000        0xc c:/eclipse-arm/gcc-4_8-2014/bin/../lib/gcc/arm-none-eabi/4.8.4/../../../../arm-none-eabi/lib/armv7e-m/fpu\libg.a(lib_a-locale.o)
 .text.__locale_msgcharset
                0x00000000        0x8 c:/eclipse-arm/gcc-4_8-2014/bin/../lib/gcc/arm-none-eabi/4.8.4/../../../../arm-none-eabi/lib/armv7e-m/fpu\libg.a(lib_a-locale.o)
 .text.__locale_cjk_lang
                0x00000000        0x4 c:/eclipse-arm/gcc-4_8-2014/bin/../lib/gcc/arm-none-eabi/4.8.4/../../../../arm-none-eabi/lib/armv7e-m/fpu\libg.a(lib_a-locale.o)
 .text.setlocale
                0x00000000       0x10 c:/eclipse-arm/gcc-4_8-2014/bin/../lib/gcc/arm-none-eabi/4.8.4/../../../../arm-none-eabi/lib/armv7e-m/fpu\libg.a(lib_a-locale.o)
 .text.localeconv
                0x00000000        0x8 c:/eclipse-arm/gcc-4_8-2014/bin/../lib/gcc/arm-none-eabi/4.8.4/../../../../arm-none-eabi/lib/armv7e-m/fpu\libg.a(lib_a-locale.o)
 .data.lc_message_charset
                0x00000000       0x20 c:/eclipse-arm/gcc-4_8-2014/bin/../lib/gcc/arm-none-eabi/4.8.4/../../../../arm-none-eabi/lib/armv7e-m/fpu\libg.a(lib_a-locale.o)
 .bss._PathLocale
                0x00000000        0x4 c:/eclipse-arm/gcc-4_8-2014/bin/../lib/gcc/arm-none-eabi/4.8.4/../../../../arm-none-eabi/lib/armv7e-m/fpu\libg.a(lib_a-locale.o)
 .bss.__nlocale_changed
                0x00000000        0x4 c:/eclipse-arm/gcc-4_8-2014/bin/../lib/gcc/arm-none-eabi/4.8.4/../../../../arm-none-eabi/lib/armv7e-m/fpu\libg.a(lib_a-locale.o)
 .bss.__mlocale_changed
                0x00000000        0x4 c:/eclipse-arm/gcc-4_8-2014/bin/../lib/gcc/arm-none-eabi/4.8.4/../../../../arm-none-eabi/lib/armv7e-m/fpu\libg.a(lib_a-locale.o)
 .data.lc_ctype_charset
                0x00000000       0x20 c:/eclipse-arm/gcc-4_8-2014/bin/../lib/gcc/arm-none-eabi/4.8.4/../../../../arm-none-eabi/lib/armv7e-m/fpu\libg.a(lib_a-locale.o)
 .data.__mb_cur_max
                0x00000000        0x4 c:/eclipse-arm/gcc-4_8-2014/bin/../lib/gcc/arm-none-eabi/4.8.4/../../../../arm-none-eabi/lib/armv7e-m/fpu\libg.a(lib_a-locale.o)
 .text          0x00000000        0x0 c:/eclipse-arm/gcc-4_8-2014/bin/../lib/gcc/arm-none-eabi/4.8.4/../../../../arm-none-eabi/lib/armv7e-m/fpu\libg.a(lib_a-mallocr.o)
 .data          0x00000000        0x0 c:/eclipse-arm/gcc-4_8-2014/bin/../lib/gcc/arm-none-eabi/4.8.4/../../../../arm-none-eabi/lib/armv7e-m/fpu\libg.a(lib_a-mallocr.o)
 .bss           0x00000000        0x0 c:/eclipse-arm/gcc-4_8-2014/bin/../lib/gcc/arm-none-eabi/4.8.4/../../../../arm-none-eabi/lib/armv7e-m/fpu\libg.a(lib_a-mallocr.o)
 .text          0x00000000        0x0 c:/eclipse-arm/gcc-4_8-2014/bin/../lib/gcc/arm-none-eabi/4.8.4/../../../../arm-none-eabi/lib/armv7e-m/fpu\libg.a(lib_a-memchr-stub.o)
 .data          0x00000000        0x0 c:/eclipse-arm/gcc-4_8-2014/bin/../lib/gcc/arm-none-eabi/4.8.4/../../../../arm-none-eabi/lib/armv7e-m/fpu\libg.a(lib_a-memchr-stub.o)
 .bss           0x00000000        0x0 c:/eclipse-arm/gcc-4_8-2014/bin/../lib/gcc/arm-none-eabi/4.8.4/../../../../arm-none-eabi/lib/armv7e-m/fpu\libg.a(lib_a-memchr-stub.o)
 .data          0x00000000        0x0 c:/eclipse-arm/gcc-4_8-2014/bin/../lib/gcc/arm-none-eabi/4.8.4/../../../../arm-none-eabi/lib/armv7e-m/fpu\libg.a(lib_a-memcpy.o)
 .bss           0x00000000        0x0 c:/eclipse-arm/gcc-4_8-2014/bin/../lib/gcc/arm-none-eabi/4.8.4/../../../../arm-none-eabi/lib/armv7e-m/fpu\libg.a(lib_a-memcpy.o)
 .text          0x00000000        0x0 c:/eclipse-arm/gcc-4_8-2014/bin/../lib/gcc/arm-none-eabi/4.8.4/../../../../arm-none-eabi/lib/armv7e-m/fpu\libg.a(lib_a-mlock.o)
 .data          0x00000000        0x0 c:/eclipse-arm/gcc-4_8-2014/bin/../lib/gcc/arm-none-eabi/4.8.4/../../../../arm-none-eabi/lib/armv7e-m/fpu\libg.a(lib_a-mlock.o)
 .bss           0x00000000        0x0 c:/eclipse-arm/gcc-4_8-2014/bin/../lib/gcc/arm-none-eabi/4.8.4/../../../../arm-none-eabi/lib/armv7e-m/fpu\libg.a(lib_a-mlock.o)
 .text          0x00000000        0x0 c:/eclipse-arm/gcc-4_8-2014/bin/../lib/gcc/arm-none-eabi/4.8.4/../../../../arm-none-eabi/lib/armv7e-m/fpu\libg.a(lib_a-mprec.o)
 .data          0x00000000        0x0 c:/eclipse-arm/gcc-4_8-2014/bin/../lib/gcc/arm-none-eabi/4.8.4/../../../../arm-none-eabi/lib/armv7e-m/fpu\libg.a(lib_a-mprec.o)
 .bss           0x00000000        0x0 c:/eclipse-arm/gcc-4_8-2014/bin/../lib/gcc/arm-none-eabi/4.8.4/../../../../arm-none-eabi/lib/armv7e-m/fpu\libg.a(lib_a-mprec.o)
 .text.__s2b    0x00000000       0x98 c:/eclipse-arm/gcc-4_8-2014/bin/../lib/gcc/arm-none-eabi/4.8.4/../../../../arm-none-eabi/lib/armv7e-m/fpu\libg.a(lib_a-mprec.o)
 .text.__ulp    0x00000000       0x50 c:/eclipse-arm/gcc-4_8-2014/bin/../lib/gcc/arm-none-eabi/4.8.4/../../../../arm-none-eabi/lib/armv7e-m/fpu\libg.a(lib_a-mprec.o)
 .text.__b2d    0x00000000       0xb0 c:/eclipse-arm/gcc-4_8-2014/bin/../lib/gcc/arm-none-eabi/4.8.4/../../../../arm-none-eabi/lib/armv7e-m/fpu\libg.a(lib_a-mprec.o)
 .text.__ratio  0x00000000       0x54 c:/eclipse-arm/gcc-4_8-2014/bin/../lib/gcc/arm-none-eabi/4.8.4/../../../../arm-none-eabi/lib/armv7e-m/fpu\libg.a(lib_a-mprec.o)
 .text._mprec_log10
                0x00000000       0x38 c:/eclipse-arm/gcc-4_8-2014/bin/../lib/gcc/arm-none-eabi/4.8.4/../../../../arm-none-eabi/lib/armv7e-m/fpu\libg.a(lib_a-mprec.o)
 .text.__copybits
                0x00000000       0x48 c:/eclipse-arm/gcc-4_8-2014/bin/../lib/gcc/arm-none-eabi/4.8.4/../../../../arm-none-eabi/lib/armv7e-m/fpu\libg.a(lib_a-mprec.o)
 .text.__any_on
                0x00000000       0x60 c:/eclipse-arm/gcc-4_8-2014/bin/../lib/gcc/arm-none-eabi/4.8.4/../../../../arm-none-eabi/lib/armv7e-m/fpu\libg.a(lib_a-mprec.o)
 .rodata.__mprec_tinytens
                0x00000000       0x28 c:/eclipse-arm/gcc-4_8-2014/bin/../lib/gcc/arm-none-eabi/4.8.4/../../../../arm-none-eabi/lib/armv7e-m/fpu\libg.a(lib_a-mprec.o)
 .text          0x00000000        0x0 c:/eclipse-arm/gcc-4_8-2014/bin/../lib/gcc/arm-none-eabi/4.8.4/../../../../arm-none-eabi/lib/armv7e-m/fpu\libg.a(lib_a-s_fpclassify.o)
 .data          0x00000000        0x0 c:/eclipse-arm/gcc-4_8-2014/bin/../lib/gcc/arm-none-eabi/4.8.4/../../../../arm-none-eabi/lib/armv7e-m/fpu\libg.a(lib_a-s_fpclassify.o)
 .bss           0x00000000        0x0 c:/eclipse-arm/gcc-4_8-2014/bin/../lib/gcc/arm-none-eabi/4.8.4/../../../../arm-none-eabi/lib/armv7e-m/fpu\libg.a(lib_a-s_fpclassify.o)
 .text          0x00000000        0x0 c:/eclipse-arm/gcc-4_8-2014/bin/../lib/gcc/arm-none-eabi/4.8.4/../../../../arm-none-eabi/lib/armv7e-m/fpu\libg.a(lib_a-sbrkr.o)
 .data          0x00000000        0x0 c:/eclipse-arm/gcc-4_8-2014/bin/../lib/gcc/arm-none-eabi/4.8.4/../../../../arm-none-eabi/lib/armv7e-m/fpu\libg.a(lib_a-sbrkr.o)
 .bss           0x00000000        0x0 c:/eclipse-arm/gcc-4_8-2014/bin/../lib/gcc/arm-none-eabi/4.8.4/../../../../arm-none-eabi/lib/armv7e-m/fpu\libg.a(lib_a-sbrkr.o)
 .text          0x00000000      0x21c c:/eclipse-arm/gcc-4_8-2014/bin/../lib/gcc/arm-none-eabi/4.8.4/../../../../arm-none-eabi/lib/armv7e-m/fpu\libg.a(lib_a-strcmp.o)
 .data          0x00000000        0x0 c:/eclipse-arm/gcc-4_8-2014/bin/../lib/gcc/arm-none-eabi/4.8.4/../../../../arm-none-eabi/lib/armv7e-m/fpu\libg.a(lib_a-strcmp.o)
 .bss           0x00000000        0x0 c:/eclipse-arm/gcc-4_8-2014/bin/../lib/gcc/arm-none-eabi/4.8.4/../../../../arm-none-eabi/lib/armv7e-m/fpu\libg.a(lib_a-strcmp.o)
 .ARM.attributes
                0x00000000       0x20 c:/eclipse-arm/gcc-4_8-2014/bin/../lib/gcc/arm-none-eabi/4.8.4/../../../../arm-none-eabi/lib/armv7e-m/fpu\libg.a(lib_a-strcmp.o)
 .text          0x00000000        0x0 c:/eclipse-arm/gcc-4_8-2014/bin/../lib/gcc/arm-none-eabi/4.8.4/../../../../arm-none-eabi/lib/armv7e-m/fpu\libg.a(lib_a-svfiprintf.o)
 .data          0x00000000        0x0 c:/eclipse-arm/gcc-4_8-2014/bin/../lib/gcc/arm-none-eabi/4.8.4/../../../../arm-none-eabi/lib/armv7e-m/fpu\libg.a(lib_a-svfiprintf.o)
 .bss           0x00000000        0x0 c:/eclipse-arm/gcc-4_8-2014/bin/../lib/gcc/arm-none-eabi/4.8.4/../../../../arm-none-eabi/lib/armv7e-m/fpu\libg.a(lib_a-svfiprintf.o)
 .text._svfiprintf_r
                0x00000000      0xb3c c:/eclipse-arm/gcc-4_8-2014/bin/../lib/gcc/arm-none-eabi/4.8.4/../../../../arm-none-eabi/lib/armv7e-m/fpu\libg.a(lib_a-svfiprintf.o)
 .rodata.zeroes.6707
                0x00000000       0x10 c:/eclipse-arm/gcc-4_8-2014/bin/../lib/gcc/arm-none-eabi/4.8.4/../../../../arm-none-eabi/lib/armv7e-m/fpu\libg.a(lib_a-svfiprintf.o)
 .rodata.str1.4
                0x00000000       0x30 c:/eclipse-arm/gcc-4_8-2014/bin/../lib/gcc/arm-none-eabi/4.8.4/../../../../arm-none-eabi/lib/armv7e-m/fpu\libg.a(lib_a-svfiprintf.o)
 .rodata.blanks.6706
                0x00000000       0x10 c:/eclipse-arm/gcc-4_8-2014/bin/../lib/gcc/arm-none-eabi/4.8.4/../../../../arm-none-eabi/lib/armv7e-m/fpu\libg.a(lib_a-svfiprintf.o)
 .text          0x00000000        0x0 c:/eclipse-arm/gcc-4_8-2014/bin/../lib/gcc/arm-none-eabi/4.8.4/../../../../arm-none-eabi/lib/armv7e-m/fpu\libg.a(lib_a-__atexit.o)
 .data          0x00000000        0x0 c:/eclipse-arm/gcc-4_8-2014/bin/../lib/gcc/arm-none-eabi/4.8.4/../../../../arm-none-eabi/lib/armv7e-m/fpu\libg.a(lib_a-__atexit.o)
 .bss           0x00000000        0x0 c:/eclipse-arm/gcc-4_8-2014/bin/../lib/gcc/arm-none-eabi/4.8.4/../../../../arm-none-eabi/lib/armv7e-m/fpu\libg.a(lib_a-__atexit.o)
 .text          0x00000000        0x0 c:/eclipse-arm/gcc-4_8-2014/bin/../lib/gcc/arm-none-eabi/4.8.4/../../../../arm-none-eabi/lib/armv7e-m/fpu\libg.a(lib_a-callocr.o)
 .data          0x00000000        0x0 c:/eclipse-arm/gcc-4_8-2014/bin/../lib/gcc/arm-none-eabi/4.8.4/../../../../arm-none-eabi/lib/armv7e-m/fpu\libg.a(lib_a-callocr.o)
 .bss           0x00000000        0x0 c:/eclipse-arm/gcc-4_8-2014/bin/../lib/gcc/arm-none-eabi/4.8.4/../../../../arm-none-eabi/lib/armv7e-m/fpu\libg.a(lib_a-callocr.o)
 .text          0x00000000        0x0 c:/eclipse-arm/gcc-4_8-2014/bin/../lib/gcc/arm-none-eabi/4.8.4/../../../../arm-none-eabi/lib/armv7e-m/fpu\libg.a(lib_a-memmove.o)
 .data          0x00000000        0x0 c:/eclipse-arm/gcc-4_8-2014/bin/../lib/gcc/arm-none-eabi/4.8.4/../../../../arm-none-eabi/lib/armv7e-m/fpu\libg.a(lib_a-memmove.o)
 .bss           0x00000000        0x0 c:/eclipse-arm/gcc-4_8-2014/bin/../lib/gcc/arm-none-eabi/4.8.4/../../../../arm-none-eabi/lib/armv7e-m/fpu\libg.a(lib_a-memmove.o)
 .text          0x00000000        0x0 c:/eclipse-arm/gcc-4_8-2014/bin/../lib/gcc/arm-none-eabi/4.8.4/../../../../arm-none-eabi/lib/armv7e-m/fpu\libg.a(lib_a-reallocr.o)
 .data          0x00000000        0x0 c:/eclipse-arm/gcc-4_8-2014/bin/../lib/gcc/arm-none-eabi/4.8.4/../../../../arm-none-eabi/lib/armv7e-m/fpu\libg.a(lib_a-reallocr.o)
 .bss           0x00000000        0x0 c:/eclipse-arm/gcc-4_8-2014/bin/../lib/gcc/arm-none-eabi/4.8.4/../../../../arm-none-eabi/lib/armv7e-m/fpu\libg.a(lib_a-reallocr.o)
 .data          0x00000000        0x0 c:/eclipse-arm/gcc-4_8-2014/bin/../lib/gcc/arm-none-eabi/4.8.4/armv7e-m/fpu\libgcc.a(_arm_cmpdf2.o)
 .bss           0x00000000        0x0 c:/eclipse-arm/gcc-4_8-2014/bin/../lib/gcc/arm-none-eabi/4.8.4/armv7e-m/fpu\libgcc.a(_arm_cmpdf2.o)
 .data          0x00000000        0x0 c:/eclipse-arm/gcc-4_8-2014/bin/../lib/gcc/arm-none-eabi/4.8.4/armv7e-m/fpu\libgcc.a(_aeabi_uldivmod.o)
 .bss           0x00000000        0x0 c:/eclipse-arm/gcc-4_8-2014/bin/../lib/gcc/arm-none-eabi/4.8.4/armv7e-m/fpu\libgcc.a(_aeabi_uldivmod.o)
 .data          0x00000000        0x0 c:/eclipse-arm/gcc-4_8-2014/bin/../lib/gcc/arm-none-eabi/4.8.4/armv7e-m/fpu\libgcc.a(bpabi.o)
 .bss           0x00000000        0x0 c:/eclipse-arm/gcc-4_8-2014/bin/../lib/gcc/arm-none-eabi/4.8.4/armv7e-m/fpu\libgcc.a(bpabi.o)
 .data          0x00000000        0x0 c:/eclipse-arm/gcc-4_8-2014/bin/../lib/gcc/arm-none-eabi/4.8.4/armv7e-m/fpu\libgcc.a(_dvmd_tls.o)
 .bss           0x00000000        0x0 c:/eclipse-arm/gcc-4_8-2014/bin/../lib/gcc/arm-none-eabi/4.8.4/armv7e-m/fpu\libgcc.a(_dvmd_tls.o)
 .data          0x00000000        0x0 c:/eclipse-arm/gcc-4_8-2014/bin/../lib/gcc/arm-none-eabi/4.8.4/armv7e-m/fpu\libgcc.a(_divdi3.o)
 .bss           0x00000000        0x0 c:/eclipse-arm/gcc-4_8-2014/bin/../lib/gcc/arm-none-eabi/4.8.4/armv7e-m/fpu\libgcc.a(_divdi3.o)
 .ARM.extab     0x00000000        0x0 c:/eclipse-arm/gcc-4_8-2014/bin/../lib/gcc/arm-none-eabi/4.8.4/armv7e-m/fpu\libgcc.a(_divdi3.o)
 .data          0x00000000        0x0 c:/eclipse-arm/gcc-4_8-2014/bin/../lib/gcc/arm-none-eabi/4.8.4/armv7e-m/fpu\libgcc.a(_udivdi3.o)
 .bss           0x00000000        0x0 c:/eclipse-arm/gcc-4_8-2014/bin/../lib/gcc/arm-none-eabi/4.8.4/armv7e-m/fpu\libgcc.a(_udivdi3.o)
 .ARM.extab     0x00000000        0x0 c:/eclipse-arm/gcc-4_8-2014/bin/../lib/gcc/arm-none-eabi/4.8.4/armv7e-m/fpu\libgcc.a(_udivdi3.o)
 .text          0x00000000        0x0 c:/eclipse-arm/gcc-4_8-2014/bin/../lib/gcc/arm-none-eabi/4.8.4/armv7e-m/fpu/crtend.o
 .data          0x00000000        0x0 c:/eclipse-arm/gcc-4_8-2014/bin/../lib/gcc/arm-none-eabi/4.8.4/armv7e-m/fpu/crtend.o
 .bss           0x00000000        0x0 c:/eclipse-arm/gcc-4_8-2014/bin/../lib/gcc/arm-none-eabi/4.8.4/armv7e-m/fpu/crtend.o
 .eh_frame      0x00000000        0x4 c:/eclipse-arm/gcc-4_8-2014/bin/../lib/gcc/arm-none-eabi/4.8.4/armv7e-m/fpu/crtend.o
 .jcr           0x00000000        0x4 c:/eclipse-arm/gcc-4_8-2014/bin/../lib/gcc/arm-none-eabi/4.8.4/armv7e-m/fpu/crtend.o
 .ARM.attributes
                0x00000000       0x34 c:/eclipse-arm/gcc-4_8-2014/bin/../lib/gcc/arm-none-eabi/4.8.4/armv7e-m/fpu/crtend.o
 .text          0x00000000        0x0 c:/eclipse-arm/gcc-4_8-2014/bin/../lib/gcc/arm-none-eabi/4.8.4/armv7e-m/fpu/crtn.o
 .data          0x00000000        0x0 c:/eclipse-arm/gcc-4_8-2014/bin/../lib/gcc/arm-none-eabi/4.8.4/armv7e-m/fpu/crtn.o
 .bss           0x00000000        0x0 c:/eclipse-arm/gcc-4_8-2014/bin/../lib/gcc/arm-none-eabi/4.8.4/armv7e-m/fpu/crtn.o

Memory Configuration

Name             Origin             Length             Attributes
FLASH            0x08000000         0x00100000         xr
RAM              0x20000000         0x00020000         xrw
CCMRAM           0x10000000         0x00010000         rw
*default*        0x00000000         0xffffffff

Linker script and memory map

LOAD c:/eclipse-arm/gcc-4_8-2014/bin/../lib/gcc/arm-none-eabi/4.8.4/armv7e-m/fpu/crti.o
LOAD c:/eclipse-arm/gcc-4_8-2014/bin/../lib/gcc/arm-none-eabi/4.8.4/armv7e-m/fpu/crtbegin.o
LOAD c:/eclipse-arm/gcc-4_8-2014/bin/../lib/gcc/arm-none-eabi/4.8.4/../../../../arm-none-eabi/lib/armv7e-m/fpu/crt0.o
LOAD ./ZHONX_III/TimesBase/TimesBase.o
LOAD ./ZHONX_III/Src/itoa.o
LOAD ./ZHONX_III/Src/main.o
LOAD ./ZHONX_III/Src/stm32f4xx_hal_msp.o
LOAD ./ZHONX_III/Src/stm32f4xx_it.o
LOAD ./ZHONX_III/Src/syscalls.o
LOAD ./ZHONX_III/Src/user_it_callback.o
LOAD ./ZHONX_III/Peripherals/Tests/tests.o
LOAD ./ZHONX_III/Peripherals/Telemeters/Telemeters.o
LOAD ./ZHONX_III/Peripherals/Gyroscope/ADXRS620.o
LOAD ./ZHONX_III/Peripherals/Expander/PCF8574.o
LOAD ./ZHONX_III/Peripherals/Encoders/IE512.o
LOAD ./ZHONX_III/Peripherals/Display/src/smallfonts.o
LOAD ./ZHONX_III/Peripherals/Display/src/ssd1306.o
LOAD ./ZHONX_III/Peripherals/Bluetooth/Bluetooth.o
LOAD ./ZHONX_III/Enslavements/Straight_Controls/Straight_Controls.o
LOAD ./ZHONX_III/Enslavements/PID/PID.o
LOAD ./ZHONX_III/Drivers/STM32F4xx_HAL_Driver/Src/stm32f4xx_hal.o
LOAD ./ZHONX_III/Drivers/STM32F4xx_HAL_Driver/Src/stm32f4xx_hal_adc.o
LOAD ./ZHONX_III/Drivers/STM32F4xx_HAL_Driver/Src/stm32f4xx_hal_adc_ex.o
LOAD ./ZHONX_III/Drivers/STM32F4xx_HAL_Driver/Src/stm32f4xx_hal_cortex.o
LOAD ./ZHONX_III/Drivers/STM32F4xx_HAL_Driver/Src/stm32f4xx_hal_dma.o
LOAD ./ZHONX_III/Drivers/STM32F4xx_HAL_Driver/Src/stm32f4xx_hal_dma_ex.o
LOAD ./ZHONX_III/Drivers/STM32F4xx_HAL_Driver/Src/stm32f4xx_hal_flash.o
LOAD ./ZHONX_III/Drivers/STM32F4xx_HAL_Driver/Src/stm32f4xx_hal_flash_ex.o
LOAD ./ZHONX_III/Drivers/STM32F4xx_HAL_Driver/Src/stm32f4xx_hal_flash_ramfunc.o
LOAD ./ZHONX_III/Drivers/STM32F4xx_HAL_Driver/Src/stm32f4xx_hal_gpio.o
LOAD ./ZHONX_III/Drivers/STM32F4xx_HAL_Driver/Src/stm32f4xx_hal_i2c.o
LOAD ./ZHONX_III/Drivers/STM32F4xx_HAL_Driver/Src/stm32f4xx_hal_i2c_ex.o
LOAD ./ZHONX_III/Drivers/STM32F4xx_HAL_Driver/Src/stm32f4xx_hal_pwr.o
LOAD ./ZHONX_III/Drivers/STM32F4xx_HAL_Driver/Src/stm32f4xx_hal_pwr_ex.o
LOAD ./ZHONX_III/Drivers/STM32F4xx_HAL_Driver/Src/stm32f4xx_hal_rcc.o
LOAD ./ZHONX_III/Drivers/STM32F4xx_HAL_Driver/Src/stm32f4xx_hal_rcc_ex.o
LOAD ./ZHONX_III/Drivers/STM32F4xx_HAL_Driver/Src/stm32f4xx_hal_tim.o
LOAD ./ZHONX_III/Drivers/STM32F4xx_HAL_Driver/Src/stm32f4xx_hal_tim_ex.o
LOAD ./ZHONX_III/Drivers/STM32F4xx_HAL_Driver/Src/stm32f4xx_hal_uart.o
LOAD ./ZHONX_III/Drivers/CMSIS/Device/ST/STM32F4xx/Source/Templates/gcc/startup_stm32f405xx.o
LOAD ./ZHONX_III/Drivers/CMSIS/Device/ST/STM32F4xx/Source/Templates/system_stm32f4xx.o
LOAD ./ZHONX_III/DSP_lib/ControllerFunctions/arm_pid_init_f32.o
LOAD ./ZHONX_III/DSP_lib/ControllerFunctions/arm_pid_init_q15.o
LOAD ./ZHONX_III/DSP_lib/ControllerFunctions/arm_pid_init_q31.o
LOAD ./ZHONX_III/DSP_lib/ControllerFunctions/arm_pid_reset_f32.o
LOAD ./ZHONX_III/DSP_lib/ControllerFunctions/arm_pid_reset_q15.o
LOAD ./ZHONX_III/DSP_lib/ControllerFunctions/arm_pid_reset_q31.o
LOAD ./ZHONX_III/DSP_lib/ControllerFunctions/arm_sin_cos_f32.o
LOAD ./ZHONX_III/DSP_lib/ControllerFunctions/arm_sin_cos_q31.o
START GROUP
LOAD c:/eclipse-arm/gcc-4_8-2014/bin/../lib/gcc/arm-none-eabi/4.8.4/armv7e-m/fpu\libgcc.a
LOAD c:/eclipse-arm/gcc-4_8-2014/bin/../lib/gcc/arm-none-eabi/4.8.4/../../../../arm-none-eabi/lib/armv7e-m/fpu\libg.a
LOAD c:/eclipse-arm/gcc-4_8-2014/bin/../lib/gcc/arm-none-eabi/4.8.4/../../../../arm-none-eabi/lib/armv7e-m/fpu\libc.a
END GROUP
LOAD c:/eclipse-arm/gcc-4_8-2014/bin/../lib/gcc/arm-none-eabi/4.8.4/armv7e-m/fpu/crtend.o
LOAD c:/eclipse-arm/gcc-4_8-2014/bin/../lib/gcc/arm-none-eabi/4.8.4/armv7e-m/fpu/crtn.o
                0x2001ffff                _estack = 0x2001ffff
                0x00000000                _Min_Heap_Size = 0x0
                0x00000400                _Min_Stack_Size = 0x400

.isr_vector     0x08000000      0x188
                0x08000000                . = ALIGN (0x4)
 *(.isr_vector)
 .isr_vector    0x08000000      0x188 ./ZHONX_III/Drivers/CMSIS/Device/ST/STM32F4xx/Source/Templates/gcc/startup_stm32f405xx.o
                0x08000000                g_pfnVectors
                0x08000188                . = ALIGN (0x4)

.text           0x08000188     0xe048
                0x08000188                . = ALIGN (0x4)
 *(.text)
 .text          0x08000188       0x54 c:/eclipse-arm/gcc-4_8-2014/bin/../lib/gcc/arm-none-eabi/4.8.4/armv7e-m/fpu/crtbegin.o
 .text          0x080001dc      0x370 c:/eclipse-arm/gcc-4_8-2014/bin/../lib/gcc/arm-none-eabi/4.8.4/armv7e-m/fpu\libgcc.a(_arm_addsubdf3.o)
                0x080001dc                __aeabi_drsub
                0x080001e4                __aeabi_dsub
                0x080001e4                __subdf3
                0x080001e8                __aeabi_dadd
                0x080001e8                __adddf3
                0x08000460                __floatunsidf
                0x08000460                __aeabi_ui2d
                0x08000480                __floatsidf
                0x08000480                __aeabi_i2d
                0x080004a4                __aeabi_f2d
                0x080004a4                __extendsfdf2
                0x080004e0                __floatundidf
                0x080004e0                __aeabi_ul2d
                0x080004f0                __floatdidf
                0x080004f0                __aeabi_l2d
 .text          0x0800054c      0x424 c:/eclipse-arm/gcc-4_8-2014/bin/../lib/gcc/arm-none-eabi/4.8.4/armv7e-m/fpu\libgcc.a(_arm_muldivdf3.o)
                0x0800054c                __aeabi_dmul
                0x0800054c                __muldf3
                0x080007a0                __divdf3
                0x080007a0                __aeabi_ddiv
 .text          0x08000970       0x50 c:/eclipse-arm/gcc-4_8-2014/bin/../lib/gcc/arm-none-eabi/4.8.4/armv7e-m/fpu\libgcc.a(_arm_fixdfsi.o)
                0x08000970                __aeabi_d2iz
                0x08000970                __fixdfsi
 .text          0x080009c0       0xa0 c:/eclipse-arm/gcc-4_8-2014/bin/../lib/gcc/arm-none-eabi/4.8.4/armv7e-m/fpu\libgcc.a(_arm_truncdfsf2.o)
                0x080009c0                __truncdfsf2
                0x080009c0                __aeabi_d2f
 .text          0x08000a60      0x134 c:/eclipse-arm/gcc-4_8-2014/bin/../lib/gcc/arm-none-eabi/4.8.4/../../../../arm-none-eabi/lib/armv7e-m/fpu\libg.a(lib_a-memcpy.o)
                0x08000a60                memcpy
 .text          0x08000b94      0x110 c:/eclipse-arm/gcc-4_8-2014/bin/../lib/gcc/arm-none-eabi/4.8.4/armv7e-m/fpu\libgcc.a(_arm_cmpdf2.o)
                0x08000b94                __gtdf2
                0x08000b94                __gedf2
                0x08000b9c                __ltdf2
                0x08000b9c                __ledf2
                0x08000ba4                __nedf2
                0x08000ba4                __eqdf2
                0x08000ba4                __cmpdf2
                0x08000c20                __aeabi_cdrcmple
                0x08000c30                __aeabi_cdcmpeq
                0x08000c30                __aeabi_cdcmple
                0x08000c40                __aeabi_dcmpeq
                0x08000c54                __aeabi_dcmplt
                0x08000c68                __aeabi_dcmple
                0x08000c7c                __aeabi_dcmpge
                0x08000c90                __aeabi_dcmpgt
 .text          0x08000ca4       0x2c c:/eclipse-arm/gcc-4_8-2014/bin/../lib/gcc/arm-none-eabi/4.8.4/armv7e-m/fpu\libgcc.a(_aeabi_uldivmod.o)
                0x08000ca4                __aeabi_uldivmod
 .text          0x08000cd0       0x60 c:/eclipse-arm/gcc-4_8-2014/bin/../lib/gcc/arm-none-eabi/4.8.4/armv7e-m/fpu\libgcc.a(bpabi.o)
                0x08000cd0                __gnu_ldivmod_helper
                0x08000d00                __gnu_uldivmod_helper
 .text          0x08000d30        0x4 c:/eclipse-arm/gcc-4_8-2014/bin/../lib/gcc/arm-none-eabi/4.8.4/armv7e-m/fpu\libgcc.a(_dvmd_tls.o)
                0x08000d30                __aeabi_idiv0
                0x08000d30                __aeabi_ldiv0
 .text          0x08000d34      0x298 c:/eclipse-arm/gcc-4_8-2014/bin/../lib/gcc/arm-none-eabi/4.8.4/armv7e-m/fpu\libgcc.a(_divdi3.o)
                0x08000d34                __divdi3
 .text          0x08000fcc      0x284 c:/eclipse-arm/gcc-4_8-2014/bin/../lib/gcc/arm-none-eabi/4.8.4/armv7e-m/fpu\libgcc.a(_udivdi3.o)
                0x08000fcc                __udivdi3
 *(.text*)
 .text.TimesBase_Init
                0x08001250       0xbc ./ZHONX_III/TimesBase/TimesBase.o
                0x08001250                TimesBase_Init
 .text.Led_Power_Blink
                0x0800130c       0x50 ./ZHONX_III/TimesBase/TimesBase.o
                0x0800130c                Led_Power_Blink
 .text.Led_Blink_IT
                0x0800135c       0x94 ./ZHONX_III/TimesBase/TimesBase.o
                0x0800135c                Led_Blink_IT
 .text.High_Freq_IT
                0x080013f0       0x10 ./ZHONX_III/TimesBase/TimesBase.o
                0x080013f0                High_Freq_IT
 .text.Low_Freq_IT
                0x08001400        0xc ./ZHONX_III/TimesBase/TimesBase.o
                0x08001400                Low_Freq_IT
 .text.main     0x0800140c       0x90 ./ZHONX_III/Src/main.o
                0x0800140c                main
 .text.SystemClock_Config
                0x0800149c       0x80 ./ZHONX_III/Src/main.o
                0x0800149c                SystemClock_Config
 .text.MX_ADC1_Init
                0x0800151c       0x78 ./ZHONX_III/Src/main.o
 .text.MX_I2C1_Init
                0x08001594       0x54 ./ZHONX_III/Src/main.o
 .text.MX_TIM1_Init
                0x080015e8       0x7c ./ZHONX_III/Src/main.o
 .text.MX_TIM3_Init
                0x08001664       0x78 ./ZHONX_III/Src/main.o
 .text.MX_TIM4_Init
                0x080016dc       0x6c ./ZHONX_III/Src/main.o
 .text.MX_TIM6_Init
                0x08001748       0x48 ./ZHONX_III/Src/main.o
 .text.MX_TIM7_Init
                0x08001790       0x48 ./ZHONX_III/Src/main.o
 .text.MX_TIM8_Init
                0x080017d8       0xc8 ./ZHONX_III/Src/main.o
 .text.MX_TIM10_Init
                0x080018a0       0x34 ./ZHONX_III/Src/main.o
 .text.MX_USART3_UART_Init
                0x080018d4       0x48 ./ZHONX_III/Src/main.o
 .text.MX_DMA_Init
                0x0800191c       0x50 ./ZHONX_III/Src/main.o
 .text.MX_GPIO_Init
                0x0800196c      0x140 ./ZHONX_III/Src/main.o
 .text.HAL_ADC_MspInit
                0x08001aac       0xc4 ./ZHONX_III/Src/stm32f4xx_hal_msp.o
                0x08001aac                HAL_ADC_MspInit
 .text.HAL_I2C_MspInit
                0x08001b70      0x134 ./ZHONX_III/Src/stm32f4xx_hal_msp.o
                0x08001b70                HAL_I2C_MspInit
 .text.HAL_TIM_Encoder_MspInit
                0x08001ca4       0xc0 ./ZHONX_III/Src/stm32f4xx_hal_msp.o
                0x08001ca4                HAL_TIM_Encoder_MspInit
 .text.HAL_TIM_PWM_MspInit
                0x08001d64       0x54 ./ZHONX_III/Src/stm32f4xx_hal_msp.o
                0x08001d64                HAL_TIM_PWM_MspInit
 .text.HAL_TIM_Base_MspInit
                0x08001db8       0xe8 ./ZHONX_III/Src/stm32f4xx_hal_msp.o
                0x08001db8                HAL_TIM_Base_MspInit
 .text.HAL_UART_MspInit
                0x08001ea0       0x54 ./ZHONX_III/Src/stm32f4xx_hal_msp.o
                0x08001ea0                HAL_UART_MspInit
 .text.DMA1_Stream6_IRQHandler
                0x08001ef4       0x18 ./ZHONX_III/Src/stm32f4xx_it.o
                0x08001ef4                DMA1_Stream6_IRQHandler
 .text.TIM6_DAC_IRQHandler
                0x08001f0c       0x18 ./ZHONX_III/Src/stm32f4xx_it.o
                0x08001f0c                TIM6_DAC_IRQHandler
 .text.SysTick_Handler
                0x08001f24       0x10 ./ZHONX_III/Src/stm32f4xx_it.o
                0x08001f24                SysTick_Handler
 .text.TIM7_IRQHandler
                0x08001f34       0x18 ./ZHONX_III/Src/stm32f4xx_it.o
                0x08001f34                TIM7_IRQHandler
 .text.I2C1_ER_IRQHandler
                0x08001f4c       0x18 ./ZHONX_III/Src/stm32f4xx_it.o
                0x08001f4c                I2C1_ER_IRQHandler
 .text.I2C1_EV_IRQHandler
                0x08001f64       0x18 ./ZHONX_III/Src/stm32f4xx_it.o
                0x08001f64                I2C1_EV_IRQHandler
 .text.DMA1_Stream5_IRQHandler
                0x08001f7c       0x18 ./ZHONX_III/Src/stm32f4xx_it.o
                0x08001f7c                DMA1_Stream5_IRQHandler
 .text.TIM1_UP_TIM10_IRQHandler
                0x08001f94       0x20 ./ZHONX_III/Src/stm32f4xx_it.o
                0x08001f94                TIM1_UP_TIM10_IRQHandler
 .text.TIM3_IRQHandler
                0x08001fb4       0x18 ./ZHONX_III/Src/stm32f4xx_it.o
                0x08001fb4                TIM3_IRQHandler
 .text._sbrk    0x08001fcc       0x5c ./ZHONX_III/Src/syscalls.o
                0x08001fcc                _sbrk
 .text.HAL_TIM_PeriodElapsedCallback
                0x08002028       0x60 ./ZHONX_III/Src/user_it_callback.o
                0x08002028                HAL_TIM_PeriodElapsedCallback
 .text.test_Encoders
                0x08002088       0xe4 ./ZHONX_III/Peripherals/Tests/tests.o
                0x08002088                test_Encoders
 .text.test_Beeper
                0x0800216c       0x3c ./ZHONX_III/Peripherals/Tests/tests.o
                0x0800216c                test_Beeper
 .text.test_Telemeters
                0x080021a8       0x88 ./ZHONX_III/Peripherals/Tests/tests.o
                0x080021a8                test_Telemeters
 .text.Telemeters_Init
                0x08002230       0x88 ./ZHONX_III/Peripherals/Telemeters/Telemeters.o
                0x08002230                Telemeters_Init
 .text.Telemeters_IT
                0x080022b8      0x1b8 ./ZHONX_III/Peripherals/Telemeters/Telemeters.o
                0x080022b8                Telemeters_IT
 .text.ADXRS620_Init
                0x08002470       0x50 ./ZHONX_III/Peripherals/Gyroscope/ADXRS620.o
                0x08002470                ADXRS620_Init
 .text.ADXRS620_Calibrate
                0x080024c0       0x88 ./ZHONX_III/Peripherals/Gyroscope/ADXRS620.o
                0x080024c0                ADXRS620_Calibrate
 .text.ADXRS620_IT
                0x08002548       0x68 ./ZHONX_III/Peripherals/Gyroscope/ADXRS620.o
                0x08002548                ADXRS620_IT
 .text.Debug_ADXRS620
                0x080025b0       0xb8 ./ZHONX_III/Peripherals/Gyroscope/ADXRS620.o
                0x080025b0                Debug_ADXRS620
 .text.sendData
                0x08002668       0x24 ./ZHONX_III/Peripherals/Expander/PCF8574.o
 .text.getData  0x0800268c       0x34 ./ZHONX_III/Peripherals/Expander/PCF8574.o
 .text.ExpanderSetbit
                0x080026c0       0x64 ./ZHONX_III/Peripherals/Expander/PCF8574.o
                0x080026c0                ExpanderSetbit
 .text.Encoders_Init
                0x08002724       0xfc ./ZHONX_III/Peripherals/Encoders/IE512.o
                0x08002724                Encoders_Init
 .text.Left_Encoder_IT
                0x08002820       0x48 ./ZHONX_III/Peripherals/Encoders/IE512.o
                0x08002820                Left_Encoder_IT
 .text.Right_Encoder_IT
                0x08002868       0x48 ./ZHONX_III/Peripherals/Encoders/IE512.o
                0x08002868                Right_Encoder_IT
 .text.CMD      0x080028b0       0x30 ./ZHONX_III/Peripherals/Display/src/ssd1306.o
 .text.DATA     0x080028e0       0x30 ./ZHONX_III/Peripherals/Display/src/ssd1306.o
 .text.ssd1306DrawChar
                0x08002910      0x15c ./ZHONX_III/Peripherals/Display/src/ssd1306.o
 .text.ssd1306Init
                0x08002a6c      0x108 ./ZHONX_III/Peripherals/Display/src/ssd1306.o
                0x08002a6c                ssd1306Init
 .text.ssd1306DrawPixel
                0x08002b74       0x60 ./ZHONX_III/Peripherals/Display/src/ssd1306.o
                0x08002b74                ssd1306DrawPixel
 .text.ssd1306ClearScreen
                0x08002bd4       0x18 ./ZHONX_III/Peripherals/Display/src/ssd1306.o
                0x08002bd4                ssd1306ClearScreen
 .text.ssd1306Refresh
                0x08002bec       0x44 ./ZHONX_III/Peripherals/Display/src/ssd1306.o
                0x08002bec                ssd1306Refresh
 .text.ssd1306DrawString
                0x08002c30       0x58 ./ZHONX_III/Peripherals/Display/src/ssd1306.o
                0x08002c30                ssd1306DrawString
 .text.ssd1306PrintInt
                0x08002c88       0x60 ./ZHONX_III/Peripherals/Display/src/ssd1306.o
                0x08002c88                ssd1306PrintInt
 .text.Straight_Control_Start
                0x08002ce8       0x7c ./ZHONX_III/Enslavements/Straight_Controls/Straight_Controls.o
                0x08002ce8                Straight_Control_Start
 .text.Pwm_Init
                0x08002d64      0x124 ./ZHONX_III/Enslavements/Straight_Controls/Straight_Controls.o
                0x08002d64                Pwm_Init
 .text.Straight_Control_IT
                0x08002e88       0xbc ./ZHONX_III/Enslavements/Straight_Controls/Straight_Controls.o
                0x08002e88                Straight_Control_IT
 .text.arm_pid_f32
                0x08002f44       0x78 ./ZHONX_III/Enslavements/PID/PID.o
 .text.Pid_Init
                0x08002fbc       0x18 ./ZHONX_III/Enslavements/PID/PID.o
                0x08002fbc                Pid_Init
 .text.Pid      0x08002fd4       0x24 ./ZHONX_III/Enslavements/PID/PID.o
                0x08002fd4                Pid
 .text.Pids_IT  0x08002ff8        0xc ./ZHONX_III/Enslavements/PID/PID.o
                0x08002ff8                Pids_IT
 .text.HAL_Init
                0x08003004       0x44 ./ZHONX_III/Drivers/STM32F4xx_HAL_Driver/Src/stm32f4xx_hal.o
                0x08003004                HAL_Init
 .text.HAL_MspInit
                0x08003048        0xc ./ZHONX_III/Drivers/STM32F4xx_HAL_Driver/Src/stm32f4xx_hal.o
                0x08003048                HAL_MspInit
 .text.HAL_InitTick
                0x08003054       0x38 ./ZHONX_III/Drivers/STM32F4xx_HAL_Driver/Src/stm32f4xx_hal.o
                0x08003054                HAL_InitTick
 .text.HAL_IncTick
                0x0800308c       0x1c ./ZHONX_III/Drivers/STM32F4xx_HAL_Driver/Src/stm32f4xx_hal.o
                0x0800308c                HAL_IncTick
 .text.HAL_GetTick
                0x080030a8       0x18 ./ZHONX_III/Drivers/STM32F4xx_HAL_Driver/Src/stm32f4xx_hal.o
                0x080030a8                HAL_GetTick
 .text.HAL_Delay
                0x080030c0       0x2c ./ZHONX_III/Drivers/STM32F4xx_HAL_Driver/Src/stm32f4xx_hal.o
                0x080030c0                HAL_Delay
 .text.HAL_ADC_Init
                0x080030ec       0x54 ./ZHONX_III/Drivers/STM32F4xx_HAL_Driver/Src/stm32f4xx_hal_adc.o
                0x080030ec                HAL_ADC_Init
 .text.HAL_ADC_Start
                0x08003140       0xd8 ./ZHONX_III/Drivers/STM32F4xx_HAL_Driver/Src/stm32f4xx_hal_adc.o
                0x08003140                HAL_ADC_Start
 .text.HAL_ADC_Start_DMA
                0x08003218       0xe8 ./ZHONX_III/Drivers/STM32F4xx_HAL_Driver/Src/stm32f4xx_hal_adc.o
                0x08003218                HAL_ADC_Start_DMA
 .text.HAL_ADC_Stop_DMA
                0x08003300       0x54 ./ZHONX_III/Drivers/STM32F4xx_HAL_Driver/Src/stm32f4xx_hal_adc.o
                0x08003300                HAL_ADC_Stop_DMA
 .text.HAL_ADC_ConvCpltCallback
                0x08003354       0x14 ./ZHONX_III/Drivers/STM32F4xx_HAL_Driver/Src/stm32f4xx_hal_adc.o
                0x08003354                HAL_ADC_ConvCpltCallback
 .text.HAL_ADC_ConvHalfCpltCallback
                0x08003368       0x14 ./ZHONX_III/Drivers/STM32F4xx_HAL_Driver/Src/stm32f4xx_hal_adc.o
                0x08003368                HAL_ADC_ConvHalfCpltCallback
 .text.HAL_ADC_ErrorCallback
                0x0800337c       0x14 ./ZHONX_III/Drivers/STM32F4xx_HAL_Driver/Src/stm32f4xx_hal_adc.o
                0x0800337c                HAL_ADC_ErrorCallback
 .text.HAL_ADC_ConfigChannel
                0x08003390      0x1f0 ./ZHONX_III/Drivers/STM32F4xx_HAL_Driver/Src/stm32f4xx_hal_adc.o
                0x08003390                HAL_ADC_ConfigChannel
 .text.ADC_Init
                0x08003580      0x1c0 ./ZHONX_III/Drivers/STM32F4xx_HAL_Driver/Src/stm32f4xx_hal_adc.o
 .text.ADC_DMAConvCplt
                0x08003740       0x38 ./ZHONX_III/Drivers/STM32F4xx_HAL_Driver/Src/stm32f4xx_hal_adc.o
 .text.ADC_DMAHalfConvCplt
                0x08003778       0x1c ./ZHONX_III/Drivers/STM32F4xx_HAL_Driver/Src/stm32f4xx_hal_adc.o
 .text.ADC_DMAError
                0x08003794       0x30 ./ZHONX_III/Drivers/STM32F4xx_HAL_Driver/Src/stm32f4xx_hal_adc.o
 .text.NVIC_SetPriorityGrouping
                0x080037c4       0x48 ./ZHONX_III/Drivers/STM32F4xx_HAL_Driver/Src/stm32f4xx_hal_cortex.o
 .text.NVIC_GetPriorityGrouping
                0x0800380c       0x1c ./ZHONX_III/Drivers/STM32F4xx_HAL_Driver/Src/stm32f4xx_hal_cortex.o
 .text.NVIC_EnableIRQ
                0x08003828       0x30 ./ZHONX_III/Drivers/STM32F4xx_HAL_Driver/Src/stm32f4xx_hal_cortex.o
 .text.NVIC_ClearPendingIRQ
                0x08003858       0x34 ./ZHONX_III/Drivers/STM32F4xx_HAL_Driver/Src/stm32f4xx_hal_cortex.o
 .text.NVIC_SetPriority
                0x0800388c       0x54 ./ZHONX_III/Drivers/STM32F4xx_HAL_Driver/Src/stm32f4xx_hal_cortex.o
 .text.NVIC_EncodePriority
                0x080038e0       0x68 ./ZHONX_III/Drivers/STM32F4xx_HAL_Driver/Src/stm32f4xx_hal_cortex.o
 .text.SysTick_Config
                0x08003948       0x44 ./ZHONX_III/Drivers/STM32F4xx_HAL_Driver/Src/stm32f4xx_hal_cortex.o
 .text.HAL_NVIC_SetPriorityGrouping
                0x0800398c       0x14 ./ZHONX_III/Drivers/STM32F4xx_HAL_Driver/Src/stm32f4xx_hal_cortex.o
                0x0800398c                HAL_NVIC_SetPriorityGrouping
 .text.HAL_NVIC_SetPriority
                0x080039a0       0x38 ./ZHONX_III/Drivers/STM32F4xx_HAL_Driver/Src/stm32f4xx_hal_cortex.o
                0x080039a0                HAL_NVIC_SetPriority
 .text.HAL_NVIC_EnableIRQ
                0x080039d8       0x1c ./ZHONX_III/Drivers/STM32F4xx_HAL_Driver/Src/stm32f4xx_hal_cortex.o
                0x080039d8                HAL_NVIC_EnableIRQ
 .text.HAL_SYSTICK_Config
                0x080039f4       0x18 ./ZHONX_III/Drivers/STM32F4xx_HAL_Driver/Src/stm32f4xx_hal_cortex.o
                0x080039f4                HAL_SYSTICK_Config
 .text.HAL_NVIC_ClearPendingIRQ
                0x08003a0c       0x1c ./ZHONX_III/Drivers/STM32F4xx_HAL_Driver/Src/stm32f4xx_hal_cortex.o
                0x08003a0c                HAL_NVIC_ClearPendingIRQ
 .text.HAL_SYSTICK_IRQHandler
                0x08003a28        0xc ./ZHONX_III/Drivers/STM32F4xx_HAL_Driver/Src/stm32f4xx_hal_cortex.o
                0x08003a28                HAL_SYSTICK_IRQHandler
 .text.HAL_SYSTICK_Callback
                0x08003a34        0xc ./ZHONX_III/Drivers/STM32F4xx_HAL_Driver/Src/stm32f4xx_hal_cortex.o
                0x08003a34                HAL_SYSTICK_Callback
 .text.HAL_DMA_Init
                0x08003a40       0xd8 ./ZHONX_III/Drivers/STM32F4xx_HAL_Driver/Src/stm32f4xx_hal_dma.o
                0x08003a40                HAL_DMA_Init
 .text.HAL_DMA_Start_IT
                0x08003b18       0xb4 ./ZHONX_III/Drivers/STM32F4xx_HAL_Driver/Src/stm32f4xx_hal_dma.o
                0x08003b18                HAL_DMA_Start_IT
 .text.HAL_DMA_Abort
                0x08003bcc       0x7c ./ZHONX_III/Drivers/STM32F4xx_HAL_Driver/Src/stm32f4xx_hal_dma.o
                0x08003bcc                HAL_DMA_Abort
 .text.HAL_DMA_IRQHandler
                0x08003c48     0x333c ./ZHONX_III/Drivers/STM32F4xx_HAL_Driver/Src/stm32f4xx_hal_dma.o
                0x08003c48                HAL_DMA_IRQHandler
 .text.DMA_SetConfig
                0x08006f84       0x4c ./ZHONX_III/Drivers/STM32F4xx_HAL_Driver/Src/stm32f4xx_hal_dma.o
 .text.HAL_GPIO_Init
                0x08006fd0      0x344 ./ZHONX_III/Drivers/STM32F4xx_HAL_Driver/Src/stm32f4xx_hal_gpio.o
                0x08006fd0                HAL_GPIO_Init
 .text.HAL_GPIO_WritePin
                0x08007314       0x30 ./ZHONX_III/Drivers/STM32F4xx_HAL_Driver/Src/stm32f4xx_hal_gpio.o
                0x08007314                HAL_GPIO_WritePin
 .text.HAL_I2C_Init
                0x08007344      0x1ac ./ZHONX_III/Drivers/STM32F4xx_HAL_Driver/Src/stm32f4xx_hal_i2c.o
                0x08007344                HAL_I2C_Init
 .text.HAL_I2C_Master_Transmit_DMA
                0x080074f0      0x10c ./ZHONX_III/Drivers/STM32F4xx_HAL_Driver/Src/stm32f4xx_hal_i2c.o
                0x080074f0                HAL_I2C_Master_Transmit_DMA
 .text.HAL_I2C_Master_Receive_DMA
                0x080075fc      0x134 ./ZHONX_III/Drivers/STM32F4xx_HAL_Driver/Src/stm32f4xx_hal_i2c.o
                0x080075fc                HAL_I2C_Master_Receive_DMA
 .text.HAL_I2C_EV_IRQHandler
                0x08007730      0x2e0 ./ZHONX_III/Drivers/STM32F4xx_HAL_Driver/Src/stm32f4xx_hal_i2c.o
                0x08007730                HAL_I2C_EV_IRQHandler
 .text.HAL_I2C_ER_IRQHandler
                0x08007a10      0x1d0 ./ZHONX_III/Drivers/STM32F4xx_HAL_Driver/Src/stm32f4xx_hal_i2c.o
                0x08007a10                HAL_I2C_ER_IRQHandler
 .text.HAL_I2C_MasterTxCpltCallback
                0x08007be0       0x14 ./ZHONX_III/Drivers/STM32F4xx_HAL_Driver/Src/stm32f4xx_hal_i2c.o
                0x08007be0                HAL_I2C_MasterTxCpltCallback
 .text.HAL_I2C_MasterRxCpltCallback
                0x08007bf4       0x14 ./ZHONX_III/Drivers/STM32F4xx_HAL_Driver/Src/stm32f4xx_hal_i2c.o
                0x08007bf4                HAL_I2C_MasterRxCpltCallback
 .text.HAL_I2C_SlaveTxCpltCallback
                0x08007c08       0x14 ./ZHONX_III/Drivers/STM32F4xx_HAL_Driver/Src/stm32f4xx_hal_i2c.o
                0x08007c08                HAL_I2C_SlaveTxCpltCallback
 .text.HAL_I2C_SlaveRxCpltCallback
                0x08007c1c       0x14 ./ZHONX_III/Drivers/STM32F4xx_HAL_Driver/Src/stm32f4xx_hal_i2c.o
                0x08007c1c                HAL_I2C_SlaveRxCpltCallback
 .text.HAL_I2C_MemTxCpltCallback
                0x08007c30       0x14 ./ZHONX_III/Drivers/STM32F4xx_HAL_Driver/Src/stm32f4xx_hal_i2c.o
                0x08007c30                HAL_I2C_MemTxCpltCallback
 .text.HAL_I2C_MemRxCpltCallback
                0x08007c44       0x14 ./ZHONX_III/Drivers/STM32F4xx_HAL_Driver/Src/stm32f4xx_hal_i2c.o
                0x08007c44                HAL_I2C_MemRxCpltCallback
 .text.HAL_I2C_ErrorCallback
                0x08007c58       0x14 ./ZHONX_III/Drivers/STM32F4xx_HAL_Driver/Src/stm32f4xx_hal_i2c.o
                0x08007c58                HAL_I2C_ErrorCallback
 .text.HAL_I2C_GetState
                0x08007c6c       0x1c ./ZHONX_III/Drivers/STM32F4xx_HAL_Driver/Src/stm32f4xx_hal_i2c.o
                0x08007c6c                HAL_I2C_GetState
 .text.I2C_MasterTransmit_TXE
                0x08007c88       0x50 ./ZHONX_III/Drivers/STM32F4xx_HAL_Driver/Src/stm32f4xx_hal_i2c.o
 .text.I2C_MasterTransmit_BTF
                0x08007cd8       0xa4 ./ZHONX_III/Drivers/STM32F4xx_HAL_Driver/Src/stm32f4xx_hal_i2c.o
 .text.I2C_MasterReceive_RXNE
                0x08007d7c       0xdc ./ZHONX_III/Drivers/STM32F4xx_HAL_Driver/Src/stm32f4xx_hal_i2c.o
 .text.I2C_MasterReceive_BTF
                0x08007e58      0x128 ./ZHONX_III/Drivers/STM32F4xx_HAL_Driver/Src/stm32f4xx_hal_i2c.o
 .text.I2C_SlaveTransmit_TXE
                0x08007f80       0x40 ./ZHONX_III/Drivers/STM32F4xx_HAL_Driver/Src/stm32f4xx_hal_i2c.o
 .text.I2C_SlaveTransmit_BTF
                0x08007fc0       0x40 ./ZHONX_III/Drivers/STM32F4xx_HAL_Driver/Src/stm32f4xx_hal_i2c.o
 .text.I2C_SlaveReceive_RXNE
                0x08008000       0x44 ./ZHONX_III/Drivers/STM32F4xx_HAL_Driver/Src/stm32f4xx_hal_i2c.o
 .text.I2C_SlaveReceive_BTF
                0x08008044       0x44 ./ZHONX_III/Drivers/STM32F4xx_HAL_Driver/Src/stm32f4xx_hal_i2c.o
 .text.I2C_Slave_ADDR
                0x08008088       0x24 ./ZHONX_III/Drivers/STM32F4xx_HAL_Driver/Src/stm32f4xx_hal_i2c.o
 .text.I2C_Slave_STOPF
                0x080080ac       0x70 ./ZHONX_III/Drivers/STM32F4xx_HAL_Driver/Src/stm32f4xx_hal_i2c.o
 .text.I2C_Slave_AF
                0x0800811c       0x64 ./ZHONX_III/Drivers/STM32F4xx_HAL_Driver/Src/stm32f4xx_hal_i2c.o
 .text.I2C_MasterRequestWrite
                0x08008180       0xcc ./ZHONX_III/Drivers/STM32F4xx_HAL_Driver/Src/stm32f4xx_hal_i2c.o
 .text.I2C_MasterRequestRead
                0x0800824c      0x14c ./ZHONX_III/Drivers/STM32F4xx_HAL_Driver/Src/stm32f4xx_hal_i2c.o
 .text.I2C_DMAMasterTransmitCplt
                0x08008398       0xb0 ./ZHONX_III/Drivers/STM32F4xx_HAL_Driver/Src/stm32f4xx_hal_i2c.o
 .text.I2C_DMAMasterReceiveCplt
                0x08008448       0xa8 ./ZHONX_III/Drivers/STM32F4xx_HAL_Driver/Src/stm32f4xx_hal_i2c.o
 .text.I2C_DMAError
                0x080084f0       0x4c ./ZHONX_III/Drivers/STM32F4xx_HAL_Driver/Src/stm32f4xx_hal_i2c.o
 .text.I2C_WaitOnFlagUntilTimeout
                0x0800853c      0x114 ./ZHONX_III/Drivers/STM32F4xx_HAL_Driver/Src/stm32f4xx_hal_i2c.o
 .text.I2C_WaitOnMasterAddressFlagUntilTimeout
                0x08008650       0xd8 ./ZHONX_III/Drivers/STM32F4xx_HAL_Driver/Src/stm32f4xx_hal_i2c.o
 .text.HAL_RCC_OscConfig
                0x08008728      0x4b8 ./ZHONX_III/Drivers/STM32F4xx_HAL_Driver/Src/stm32f4xx_hal_rcc.o
                0x08008728                HAL_RCC_OscConfig
 .text.HAL_RCC_ClockConfig
                0x08008be0      0x2b8 ./ZHONX_III/Drivers/STM32F4xx_HAL_Driver/Src/stm32f4xx_hal_rcc.o
                0x08008be0                HAL_RCC_ClockConfig
 .text.HAL_RCC_EnableCSS
                0x08008e98       0x18 ./ZHONX_III/Drivers/STM32F4xx_HAL_Driver/Src/stm32f4xx_hal_rcc.o
                0x08008e98                HAL_RCC_EnableCSS
 .text.HAL_RCC_GetSysClockFreq
                0x08008eb0      0x138 ./ZHONX_III/Drivers/STM32F4xx_HAL_Driver/Src/stm32f4xx_hal_rcc.o
                0x08008eb0                HAL_RCC_GetSysClockFreq
 .text.HAL_RCC_GetHCLKFreq
                0x08008fe8       0x58 ./ZHONX_III/Drivers/STM32F4xx_HAL_Driver/Src/stm32f4xx_hal_rcc.o
                0x08008fe8                HAL_RCC_GetHCLKFreq
 .text.HAL_RCC_GetPCLK1Freq
                0x08009040       0x50 ./ZHONX_III/Drivers/STM32F4xx_HAL_Driver/Src/stm32f4xx_hal_rcc.o
                0x08009040                HAL_RCC_GetPCLK1Freq
 .text.HAL_RCC_GetPCLK2Freq
                0x08009090       0x50 ./ZHONX_III/Drivers/STM32F4xx_HAL_Driver/Src/stm32f4xx_hal_rcc.o
                0x08009090                HAL_RCC_GetPCLK2Freq
 .text.HAL_TIM_Base_Init
                0x080090e0       0x50 ./ZHONX_III/Drivers/STM32F4xx_HAL_Driver/Src/stm32f4xx_hal_tim.o
                0x080090e0                HAL_TIM_Base_Init
 .text.HAL_TIM_Base_Start_IT
                0x08009130       0x38 ./ZHONX_III/Drivers/STM32F4xx_HAL_Driver/Src/stm32f4xx_hal_tim.o
                0x08009130                HAL_TIM_Base_Start_IT
 .text.HAL_TIM_PWM_Init
                0x08009168       0x50 ./ZHONX_III/Drivers/STM32F4xx_HAL_Driver/Src/stm32f4xx_hal_tim.o
                0x08009168                HAL_TIM_PWM_Init
 .text.HAL_TIM_PWM_Start
                0x080091b8       0x68 ./ZHONX_III/Drivers/STM32F4xx_HAL_Driver/Src/stm32f4xx_hal_tim.o
                0x080091b8                HAL_TIM_PWM_Start
 .text.HAL_TIM_PWM_Stop
                0x08009220       0xb0 ./ZHONX_III/Drivers/STM32F4xx_HAL_Driver/Src/stm32f4xx_hal_tim.o
                0x08009220                HAL_TIM_PWM_Stop
 .text.HAL_TIM_Encoder_Init
                0x080092d0      0x124 ./ZHONX_III/Drivers/STM32F4xx_HAL_Driver/Src/stm32f4xx_hal_tim.o
                0x080092d0                HAL_TIM_Encoder_Init
 .text.HAL_TIM_Encoder_Start
                0x080093f4       0x70 ./ZHONX_III/Drivers/STM32F4xx_HAL_Driver/Src/stm32f4xx_hal_tim.o
                0x080093f4                HAL_TIM_Encoder_Start
 .text.HAL_TIM_IRQHandler
                0x08009464      0x210 ./ZHONX_III/Drivers/STM32F4xx_HAL_Driver/Src/stm32f4xx_hal_tim.o
                0x08009464                HAL_TIM_IRQHandler
 .text.HAL_TIM_PWM_ConfigChannel
                0x08009674      0x18c ./ZHONX_III/Drivers/STM32F4xx_HAL_Driver/Src/stm32f4xx_hal_tim.o
                0x08009674                HAL_TIM_PWM_ConfigChannel
 .text.HAL_TIM_ConfigClockSource
                0x08009800      0x1c4 ./ZHONX_III/Drivers/STM32F4xx_HAL_Driver/Src/stm32f4xx_hal_tim.o
                0x08009800                HAL_TIM_ConfigClockSource
 .text.HAL_TIM_OC_DelayElapsedCallback
                0x080099c4       0x14 ./ZHONX_III/Drivers/STM32F4xx_HAL_Driver/Src/stm32f4xx_hal_tim.o
                0x080099c4                HAL_TIM_OC_DelayElapsedCallback
 .text.HAL_TIM_IC_CaptureCallback
                0x080099d8       0x14 ./ZHONX_III/Drivers/STM32F4xx_HAL_Driver/Src/stm32f4xx_hal_tim.o
                0x080099d8                HAL_TIM_IC_CaptureCallback
 .text.HAL_TIM_PWM_PulseFinishedCallback
                0x080099ec       0x14 ./ZHONX_III/Drivers/STM32F4xx_HAL_Driver/Src/stm32f4xx_hal_tim.o
                0x080099ec                HAL_TIM_PWM_PulseFinishedCallback
 .text.HAL_TIM_TriggerCallback
                0x08009a00       0x14 ./ZHONX_III/Drivers/STM32F4xx_HAL_Driver/Src/stm32f4xx_hal_tim.o
                0x08009a00                HAL_TIM_TriggerCallback
 .text.TIM_Base_SetConfig
                0x08009a14      0x150 ./ZHONX_III/Drivers/STM32F4xx_HAL_Driver/Src/stm32f4xx_hal_tim.o
                0x08009a14                TIM_Base_SetConfig
 .text.TIM_OC1_SetConfig
                0x08009b64       0xe4 ./ZHONX_III/Drivers/STM32F4xx_HAL_Driver/Src/stm32f4xx_hal_tim.o
 .text.TIM_OC2_SetConfig
                0x08009c48       0xf0 ./ZHONX_III/Drivers/STM32F4xx_HAL_Driver/Src/stm32f4xx_hal_tim.o
                0x08009c48                TIM_OC2_SetConfig
 .text.TIM_OC3_SetConfig
                0x08009d38       0xec ./ZHONX_III/Drivers/STM32F4xx_HAL_Driver/Src/stm32f4xx_hal_tim.o
 .text.TIM_OC4_SetConfig
                0x08009e24       0xc0 ./ZHONX_III/Drivers/STM32F4xx_HAL_Driver/Src/stm32f4xx_hal_tim.o
 .text.TIM_TI1_ConfigInputStage
                0x08009ee4       0x64 ./ZHONX_III/Drivers/STM32F4xx_HAL_Driver/Src/stm32f4xx_hal_tim.o
 .text.TIM_TI2_ConfigInputStage
                0x08009f48       0x68 ./ZHONX_III/Drivers/STM32F4xx_HAL_Driver/Src/stm32f4xx_hal_tim.o
 .text.TIM_ITRx_SetConfig
                0x08009fb0       0x3c ./ZHONX_III/Drivers/STM32F4xx_HAL_Driver/Src/stm32f4xx_hal_tim.o
 .text.TIM_ETR_SetConfig
                0x08009fec       0x44 ./ZHONX_III/Drivers/STM32F4xx_HAL_Driver/Src/stm32f4xx_hal_tim.o
 .text.TIM_CCxChannelCmd
                0x0800a030       0x44 ./ZHONX_III/Drivers/STM32F4xx_HAL_Driver/Src/stm32f4xx_hal_tim.o
                0x0800a030                TIM_CCxChannelCmd
 .text.HAL_TIMEx_MasterConfigSynchronization
                0x0800a074       0x8c ./ZHONX_III/Drivers/STM32F4xx_HAL_Driver/Src/stm32f4xx_hal_tim_ex.o
                0x0800a074                HAL_TIMEx_MasterConfigSynchronization
 .text.HAL_TIMEx_ConfigBreakDeadTime
                0x0800a100       0x74 ./ZHONX_III/Drivers/STM32F4xx_HAL_Driver/Src/stm32f4xx_hal_tim_ex.o
                0x0800a100                HAL_TIMEx_ConfigBreakDeadTime
 .text.HAL_TIMEx_CommutationCallback
                0x0800a174       0x14 ./ZHONX_III/Drivers/STM32F4xx_HAL_Driver/Src/stm32f4xx_hal_tim_ex.o
                0x0800a174                HAL_TIMEx_CommutationCallback
 .text.HAL_TIMEx_BreakCallback
                0x0800a188       0x14 ./ZHONX_III/Drivers/STM32F4xx_HAL_Driver/Src/stm32f4xx_hal_tim_ex.o
                0x0800a188                HAL_TIMEx_BreakCallback
 .text.HAL_UART_Init
                0x0800a19c       0x8c ./ZHONX_III/Drivers/STM32F4xx_HAL_Driver/Src/stm32f4xx_hal_uart.o
                0x0800a19c                HAL_UART_Init
 .text.UART_SetConfig
                0x0800a228      0x2dc ./ZHONX_III/Drivers/STM32F4xx_HAL_Driver/Src/stm32f4xx_hal_uart.o
 .text.Reset_Handler
                0x0800a504       0x58 ./ZHONX_III/Drivers/CMSIS/Device/ST/STM32F4xx/Source/Templates/gcc/startup_stm32f405xx.o
                0x0800a504                Reset_Handler
 .text.Default_Handler
                0x0800a55c        0x4 ./ZHONX_III/Drivers/CMSIS/Device/ST/STM32F4xx/Source/Templates/gcc/startup_stm32f405xx.o
                0x0800a55c                RTC_Alarm_IRQHandler
                0x0800a55c                HASH_RNG_IRQHandler
                0x0800a55c                EXTI2_IRQHandler
                0x0800a55c                TIM8_CC_IRQHandler
                0x0800a55c                DebugMon_Handler
                0x0800a55c                TIM1_CC_IRQHandler
                0x0800a55c                DMA2_Stream5_IRQHandler
                0x0800a55c                HardFault_Handler
                0x0800a55c                PVD_IRQHandler
                0x0800a55c                SDIO_IRQHandler
                0x0800a55c                TAMP_STAMP_IRQHandler
                0x0800a55c                PendSV_Handler
                0x0800a55c                NMI_Handler
                0x0800a55c                CAN2_RX1_IRQHandler
                0x0800a55c                EXTI3_IRQHandler
                0x0800a55c                TIM8_TRG_COM_TIM14_IRQHandler
                0x0800a55c                TIM8_UP_TIM13_IRQHandler
                0x0800a55c                I2C3_ER_IRQHandler
                0x0800a55c                EXTI0_IRQHandler
                0x0800a55c                I2C2_EV_IRQHandler
                0x0800a55c                DMA1_Stream2_IRQHandler
                0x0800a55c                CAN1_RX0_IRQHandler
                0x0800a55c                FPU_IRQHandler
                0x0800a55c                OTG_HS_WKUP_IRQHandler
                0x0800a55c                UsageFault_Handler
                0x0800a55c                CAN2_SCE_IRQHandler
                0x0800a55c                DMA2_Stream2_IRQHandler
                0x0800a55c                SPI1_IRQHandler
                0x0800a55c                TIM1_BRK_TIM9_IRQHandler
                0x0800a55c                CAN2_RX0_IRQHandler
                0x0800a55c                DMA2_Stream3_IRQHandler
                0x0800a55c                USART6_IRQHandler
                0x0800a55c                USART3_IRQHandler
                0x0800a55c                CAN1_RX1_IRQHandler
                0x0800a55c                UART5_IRQHandler
                0x0800a55c                DMA2_Stream0_IRQHandler
                0x0800a55c                TIM4_IRQHandler
                0x0800a55c                DMA1_Stream1_IRQHandler
                0x0800a55c                UART4_IRQHandler
                0x0800a55c                RCC_IRQHandler
                0x0800a55c                TIM8_BRK_TIM12_IRQHandler
                0x0800a55c                Default_Handler
                0x0800a55c                EXTI15_10_IRQHandler
                0x0800a55c                ADC_IRQHandler
                0x0800a55c                DMA1_Stream7_IRQHandler
                0x0800a55c                CAN2_TX_IRQHandler
                0x0800a55c                TIM5_IRQHandler
                0x0800a55c                DMA2_Stream7_IRQHandler
                0x0800a55c                I2C3_EV_IRQHandler
                0x0800a55c                EXTI9_5_IRQHandler
                0x0800a55c                RTC_WKUP_IRQHandler
                0x0800a55c                SPI2_IRQHandler
                0x0800a55c                OTG_HS_EP1_IN_IRQHandler
                0x0800a55c                MemManage_Handler
                0x0800a55c                DMA1_Stream0_IRQHandler
                0x0800a55c                CAN1_TX_IRQHandler
                0x0800a55c                SVC_Handler
                0x0800a55c                EXTI4_IRQHandler
                0x0800a55c                FSMC_IRQHandler
                0x0800a55c                OTG_HS_EP1_OUT_IRQHandler
                0x0800a55c                WWDG_IRQHandler
                0x0800a55c                TIM2_IRQHandler
                0x0800a55c                OTG_FS_WKUP_IRQHandler
                0x0800a55c                TIM1_TRG_COM_TIM11_IRQHandler
                0x0800a55c                OTG_HS_IRQHandler
                0x0800a55c                EXTI1_IRQHandler
                0x0800a55c                USART2_IRQHandler
                0x0800a55c                I2C2_ER_IRQHandler
                0x0800a55c                DMA2_Stream1_IRQHandler
                0x0800a55c                CAN1_SCE_IRQHandler
                0x0800a55c                FLASH_IRQHandler
                0x0800a55c                DMA2_Stream4_IRQHandler
                0x0800a55c                BusFault_Handler
                0x0800a55c                USART1_IRQHandler
                0x0800a55c                OTG_FS_IRQHandler
                0x0800a55c                SPI3_IRQHandler
                0x0800a55c                DMA1_Stream4_IRQHandler
                0x0800a55c                DMA2_Stream6_IRQHandler
                0x0800a55c                DMA1_Stream3_IRQHandler
 .text.SystemInit
                0x0800a560       0x6c ./ZHONX_III/Drivers/CMSIS/Device/ST/STM32F4xx/Source/Templates/system_stm32f4xx.o
                0x0800a560                SystemInit
 .text.arm_pid_init_f32
                0x0800a5cc       0x6c ./ZHONX_III/DSP_lib/ControllerFunctions/arm_pid_init_f32.o
                0x0800a5cc                arm_pid_init_f32
 .text.__libc_init_array
                0x0800a638       0x50 c:/eclipse-arm/gcc-4_8-2014/bin/../lib/gcc/arm-none-eabi/4.8.4/../../../../arm-none-eabi/lib/armv7e-m/fpu\libg.a(lib_a-init.o)
                0x0800a638                __libc_init_array
 .text.memset   0x0800a688       0x94 c:/eclipse-arm/gcc-4_8-2014/bin/../lib/gcc/arm-none-eabi/4.8.4/../../../../arm-none-eabi/lib/armv7e-m/fpu\libg.a(lib_a-memset.o)
                0x0800a688                memset
 .text.sprintf  0x0800a71c       0x4c c:/eclipse-arm/gcc-4_8-2014/bin/../lib/gcc/arm-none-eabi/4.8.4/../../../../arm-none-eabi/lib/armv7e-m/fpu\libg.a(lib_a-sprintf.o)
                0x0800a71c                sprintf
 .text.strlen   0x0800a768       0x60 c:/eclipse-arm/gcc-4_8-2014/bin/../lib/gcc/arm-none-eabi/4.8.4/../../../../arm-none-eabi/lib/armv7e-m/fpu\libg.a(lib_a-strlen.o)
                0x0800a768                strlen
 .text._svfprintf_r
                0x0800a7c8     0x14f0 c:/eclipse-arm/gcc-4_8-2014/bin/../lib/gcc/arm-none-eabi/4.8.4/../../../../arm-none-eabi/lib/armv7e-m/fpu\libg.a(lib_a-svfprintf.o)
                0x0800a7c8                _svfprintf_r
 .text.startup.register_fini
                0x0800bcb8       0x14 c:/eclipse-arm/gcc-4_8-2014/bin/../lib/gcc/arm-none-eabi/4.8.4/../../../../arm-none-eabi/lib/armv7e-m/fpu\libg.a(lib_a-__call_atexit.o)
 .text.atexit   0x0800bccc        0xc c:/eclipse-arm/gcc-4_8-2014/bin/../lib/gcc/arm-none-eabi/4.8.4/../../../../arm-none-eabi/lib/armv7e-m/fpu\libg.a(lib_a-atexit.o)
                0x0800bccc                atexit
 .text.quorem   0x0800bcd8      0x130 c:/eclipse-arm/gcc-4_8-2014/bin/../lib/gcc/arm-none-eabi/4.8.4/../../../../arm-none-eabi/lib/armv7e-m/fpu\libg.a(lib_a-dtoa.o)
 .text._dtoa_r  0x0800be08      0xe58 c:/eclipse-arm/gcc-4_8-2014/bin/../lib/gcc/arm-none-eabi/4.8.4/../../../../arm-none-eabi/lib/armv7e-m/fpu\libg.a(lib_a-dtoa.o)
                0x0800be08                _dtoa_r
 .text.__libc_fini_array
                0x0800cc60       0x30 c:/eclipse-arm/gcc-4_8-2014/bin/../lib/gcc/arm-none-eabi/4.8.4/../../../../arm-none-eabi/lib/armv7e-m/fpu\libg.a(lib_a-fini.o)
                0x0800cc60                __libc_fini_array
 .text._malloc_trim_r
                0x0800cc90       0x9c c:/eclipse-arm/gcc-4_8-2014/bin/../lib/gcc/arm-none-eabi/4.8.4/../../../../arm-none-eabi/lib/armv7e-m/fpu\libg.a(lib_a-freer.o)
                0x0800cc90                _malloc_trim_r
 .text._free_r  0x0800cd2c      0x19c c:/eclipse-arm/gcc-4_8-2014/bin/../lib/gcc/arm-none-eabi/4.8.4/../../../../arm-none-eabi/lib/armv7e-m/fpu\libg.a(lib_a-freer.o)
                0x0800cd2c                _free_r
 .text._localeconv_r
                0x0800cec8        0x8 c:/eclipse-arm/gcc-4_8-2014/bin/../lib/gcc/arm-none-eabi/4.8.4/../../../../arm-none-eabi/lib/armv7e-m/fpu\libg.a(lib_a-locale.o)
                0x0800cec8                _localeconv_r
 .text._malloc_r
                0x0800ced0      0x538 c:/eclipse-arm/gcc-4_8-2014/bin/../lib/gcc/arm-none-eabi/4.8.4/../../../../arm-none-eabi/lib/armv7e-m/fpu\libg.a(lib_a-mallocr.o)
                0x0800ced0                _malloc_r
 .text.memchr   0x0800d408       0x90 c:/eclipse-arm/gcc-4_8-2014/bin/../lib/gcc/arm-none-eabi/4.8.4/../../../../arm-none-eabi/lib/armv7e-m/fpu\libg.a(lib_a-memchr-stub.o)
                0x0800d408                memchr
 .text.__malloc_lock
                0x0800d498        0x4 c:/eclipse-arm/gcc-4_8-2014/bin/../lib/gcc/arm-none-eabi/4.8.4/../../../../arm-none-eabi/lib/armv7e-m/fpu\libg.a(lib_a-mlock.o)
                0x0800d498                __malloc_lock
 .text.__malloc_unlock
                0x0800d49c        0x4 c:/eclipse-arm/gcc-4_8-2014/bin/../lib/gcc/arm-none-eabi/4.8.4/../../../../arm-none-eabi/lib/armv7e-m/fpu\libg.a(lib_a-mlock.o)
                0x0800d49c                __malloc_unlock
 .text._Balloc  0x0800d4a0       0x4c c:/eclipse-arm/gcc-4_8-2014/bin/../lib/gcc/arm-none-eabi/4.8.4/../../../../arm-none-eabi/lib/armv7e-m/fpu\libg.a(lib_a-mprec.o)
                0x0800d4a0                _Balloc
 .text._Bfree   0x0800d4ec       0x14 c:/eclipse-arm/gcc-4_8-2014/bin/../lib/gcc/arm-none-eabi/4.8.4/../../../../arm-none-eabi/lib/armv7e-m/fpu\libg.a(lib_a-mprec.o)
                0x0800d4ec                _Bfree
 .text.__multadd
                0x0800d500       0x98 c:/eclipse-arm/gcc-4_8-2014/bin/../lib/gcc/arm-none-eabi/4.8.4/../../../../arm-none-eabi/lib/armv7e-m/fpu\libg.a(lib_a-mprec.o)
                0x0800d500                __multadd
 .text.__hi0bits
                0x0800d598       0x40 c:/eclipse-arm/gcc-4_8-2014/bin/../lib/gcc/arm-none-eabi/4.8.4/../../../../arm-none-eabi/lib/armv7e-m/fpu\libg.a(lib_a-mprec.o)
                0x0800d598                __hi0bits
 .text.__lo0bits
                0x0800d5d8       0x5c c:/eclipse-arm/gcc-4_8-2014/bin/../lib/gcc/arm-none-eabi/4.8.4/../../../../arm-none-eabi/lib/armv7e-m/fpu\libg.a(lib_a-mprec.o)
                0x0800d5d8                __lo0bits
 .text.__i2b    0x0800d634       0x14 c:/eclipse-arm/gcc-4_8-2014/bin/../lib/gcc/arm-none-eabi/4.8.4/../../../../arm-none-eabi/lib/armv7e-m/fpu\libg.a(lib_a-mprec.o)
                0x0800d634                __i2b
 .text.__multiply
                0x0800d648      0x13c c:/eclipse-arm/gcc-4_8-2014/bin/../lib/gcc/arm-none-eabi/4.8.4/../../../../arm-none-eabi/lib/armv7e-m/fpu\libg.a(lib_a-mprec.o)
                0x0800d648                __multiply
 .text.__pow5mult
                0x0800d784       0x9c c:/eclipse-arm/gcc-4_8-2014/bin/../lib/gcc/arm-none-eabi/4.8.4/../../../../arm-none-eabi/lib/armv7e-m/fpu\libg.a(lib_a-mprec.o)
                0x0800d784                __pow5mult
 .text.__lshift
                0x0800d820       0xbc c:/eclipse-arm/gcc-4_8-2014/bin/../lib/gcc/arm-none-eabi/4.8.4/../../../../arm-none-eabi/lib/armv7e-m/fpu\libg.a(lib_a-mprec.o)
                0x0800d820                __lshift
 .text.__mcmp   0x0800d8dc       0x48 c:/eclipse-arm/gcc-4_8-2014/bin/../lib/gcc/arm-none-eabi/4.8.4/../../../../arm-none-eabi/lib/armv7e-m/fpu\libg.a(lib_a-mprec.o)
                0x0800d8dc                __mcmp
 .text.__mdiff  0x0800d924       0xd4 c:/eclipse-arm/gcc-4_8-2014/bin/../lib/gcc/arm-none-eabi/4.8.4/../../../../arm-none-eabi/lib/armv7e-m/fpu\libg.a(lib_a-mprec.o)
                0x0800d924                __mdiff
 .text.__d2b    0x0800d9f8       0xb4 c:/eclipse-arm/gcc-4_8-2014/bin/../lib/gcc/arm-none-eabi/4.8.4/../../../../arm-none-eabi/lib/armv7e-m/fpu\libg.a(lib_a-mprec.o)
                0x0800d9f8                __d2b
 .text.__fpclassifyd
                0x0800daac       0x54 c:/eclipse-arm/gcc-4_8-2014/bin/../lib/gcc/arm-none-eabi/4.8.4/../../../../arm-none-eabi/lib/armv7e-m/fpu\libg.a(lib_a-s_fpclassify.o)
                0x0800daac                __fpclassifyd
 .text._sbrk_r  0x0800db00       0x24 c:/eclipse-arm/gcc-4_8-2014/bin/../lib/gcc/arm-none-eabi/4.8.4/../../../../arm-none-eabi/lib/armv7e-m/fpu\libg.a(lib_a-sbrkr.o)
                0x0800db00                _sbrk_r
 .text.__ssprint_r
                0x0800db24      0x100 c:/eclipse-arm/gcc-4_8-2014/bin/../lib/gcc/arm-none-eabi/4.8.4/../../../../arm-none-eabi/lib/armv7e-m/fpu\libg.a(lib_a-svfiprintf.o)
                0x0800db24                __ssprint_r
 .text.__register_exitproc
                0x0800dc24       0xa8 c:/eclipse-arm/gcc-4_8-2014/bin/../lib/gcc/arm-none-eabi/4.8.4/../../../../arm-none-eabi/lib/armv7e-m/fpu\libg.a(lib_a-__atexit.o)
                0x0800dc24                __register_exitproc
 .text._calloc_r
                0x0800dccc       0x60 c:/eclipse-arm/gcc-4_8-2014/bin/../lib/gcc/arm-none-eabi/4.8.4/../../../../arm-none-eabi/lib/armv7e-m/fpu\libg.a(lib_a-callocr.o)
                0x0800dccc                _calloc_r
 .text.memmove  0x0800dd2c       0xc0 c:/eclipse-arm/gcc-4_8-2014/bin/../lib/gcc/arm-none-eabi/4.8.4/../../../../arm-none-eabi/lib/armv7e-m/fpu\libg.a(lib_a-memmove.o)
                0x0800dd2c                memmove
 .text._realloc_r
                0x0800ddec      0x3cc c:/eclipse-arm/gcc-4_8-2014/bin/../lib/gcc/arm-none-eabi/4.8.4/../../../../arm-none-eabi/lib/armv7e-m/fpu\libg.a(lib_a-reallocr.o)
                0x0800ddec                _realloc_r
 *(.glue_7)
 .glue_7        0x00000000        0x0 linker stubs
 *(.glue_7t)
 .glue_7t       0x00000000        0x0 linker stubs
 *(.eh_frame)
 .eh_frame      0x0800e1b8        0x0 c:/eclipse-arm/gcc-4_8-2014/bin/../lib/gcc/arm-none-eabi/4.8.4/armv7e-m/fpu/crtbegin.o
 *(.init)
 .init          0x0800e1b8        0x4 c:/eclipse-arm/gcc-4_8-2014/bin/../lib/gcc/arm-none-eabi/4.8.4/armv7e-m/fpu/crti.o
                0x0800e1b8                _init
 .init          0x0800e1bc        0x8 c:/eclipse-arm/gcc-4_8-2014/bin/../lib/gcc/arm-none-eabi/4.8.4/armv7e-m/fpu/crtn.o
 *(.fini)
 .fini          0x0800e1c4        0x4 c:/eclipse-arm/gcc-4_8-2014/bin/../lib/gcc/arm-none-eabi/4.8.4/armv7e-m/fpu/crti.o
                0x0800e1c4                _fini
 .fini          0x0800e1c8        0x8 c:/eclipse-arm/gcc-4_8-2014/bin/../lib/gcc/arm-none-eabi/4.8.4/armv7e-m/fpu/crtn.o
                0x0800e1d0                . = ALIGN (0x4)
                0x0800e1d0                _etext = .

.vfp11_veneer   0x0800e1d0        0x0
 .vfp11_veneer  0x00000000        0x0 linker stubs

.v4_bx          0x0800e1d0        0x0
 .v4_bx         0x00000000        0x0 linker stubs

.iplt           0x0800e1d0        0x0
 .iplt          0x00000000        0x0 c:/eclipse-arm/gcc-4_8-2014/bin/../lib/gcc/arm-none-eabi/4.8.4/armv7e-m/fpu/crtbegin.o

.rodata         0x0800e1d0      0x5fc
                0x0800e1d0                . = ALIGN (0x4)
 *(.rodata)
 .rodata        0x0800e1d0      0x178 ./ZHONX_III/Peripherals/Tests/tests.o
 .rodata        0x0800e348       0x24 ./ZHONX_III/Peripherals/Gyroscope/ADXRS620.o
 .rodata        0x0800e36c        0xc ./ZHONX_III/Peripherals/Display/src/ssd1306.o
 *(.rodata*)
 .rodata.Font_3x6
                0x0800e378        0x8 ./ZHONX_III/Peripherals/Display/src/smallfonts.o
                0x0800e378                Font_3x6
 .rodata.Font_5x8
                0x0800e380        0x8 ./ZHONX_III/Peripherals/Display/src/smallfonts.o
                0x0800e380                Font_5x8
 .rodata.au8Font3x6
                0x0800e388       0xc4 ./ZHONX_III/Peripherals/Display/src/smallfonts.o
                0x0800e388                au8Font3x6
 .rodata.au8Font5x8
                0x0800e44c      0x1e8 ./ZHONX_III/Peripherals/Display/src/smallfonts.o
                0x0800e44c                au8Font5x8
 .rodata.APBAHBPrescTable
                0x0800e634       0x10 ./ZHONX_III/Drivers/STM32F4xx_HAL_Driver/Src/stm32f4xx_hal_rcc.o
                0x0800e634                APBAHBPrescTable
 .rodata.str1.4
                0x0800e644        0x2 c:/eclipse-arm/gcc-4_8-2014/bin/../lib/gcc/arm-none-eabi/4.8.4/../../../../arm-none-eabi/lib/armv7e-m/fpu\libg.a(lib_a-impure.o)
                                  0x4 (size before relaxing)
 *fill*         0x0800e646        0x2 
 .rodata._global_impure_ptr
                0x0800e648        0x4 c:/eclipse-arm/gcc-4_8-2014/bin/../lib/gcc/arm-none-eabi/4.8.4/../../../../arm-none-eabi/lib/armv7e-m/fpu\libg.a(lib_a-impure.o)
                0x0800e648                _global_impure_ptr
 .rodata.zeroes.6763
                0x0800e64c       0x10 c:/eclipse-arm/gcc-4_8-2014/bin/../lib/gcc/arm-none-eabi/4.8.4/../../../../arm-none-eabi/lib/armv7e-m/fpu\libg.a(lib_a-svfprintf.o)
 .rodata.str1.4
                0x0800e65c       0x42 c:/eclipse-arm/gcc-4_8-2014/bin/../lib/gcc/arm-none-eabi/4.8.4/../../../../arm-none-eabi/lib/armv7e-m/fpu\libg.a(lib_a-svfprintf.o)
                                 0x44 (size before relaxing)
 *fill*         0x0800e69e        0x2 
 .rodata.blanks.6762
                0x0800e6a0       0x10 c:/eclipse-arm/gcc-4_8-2014/bin/../lib/gcc/arm-none-eabi/4.8.4/../../../../arm-none-eabi/lib/armv7e-m/fpu\libg.a(lib_a-svfprintf.o)
 .rodata.str1.4
                0x0800e6b0       0x10 c:/eclipse-arm/gcc-4_8-2014/bin/../lib/gcc/arm-none-eabi/4.8.4/../../../../arm-none-eabi/lib/armv7e-m/fpu\libg.a(lib_a-dtoa.o)
                                 0x14 (size before relaxing)
 .rodata.str1.4
                0x0800e6c0        0xc c:/eclipse-arm/gcc-4_8-2014/bin/../lib/gcc/arm-none-eabi/4.8.4/../../../../arm-none-eabi/lib/armv7e-m/fpu\libg.a(lib_a-locale.o)
                                 0x14 (size before relaxing)
 *fill*         0x0800e6cc        0x4 
 .rodata.__mprec_tens
                0x0800e6d0       0xc8 c:/eclipse-arm/gcc-4_8-2014/bin/../lib/gcc/arm-none-eabi/4.8.4/../../../../arm-none-eabi/lib/armv7e-m/fpu\libg.a(lib_a-mprec.o)
                0x0800e6d0                __mprec_tens
 .rodata.__mprec_bigtens
                0x0800e798       0x28 c:/eclipse-arm/gcc-4_8-2014/bin/../lib/gcc/arm-none-eabi/4.8.4/../../../../arm-none-eabi/lib/armv7e-m/fpu\libg.a(lib_a-mprec.o)
                0x0800e798                __mprec_bigtens
 .rodata.p05.5269
                0x0800e7c0        0xc c:/eclipse-arm/gcc-4_8-2014/bin/../lib/gcc/arm-none-eabi/4.8.4/../../../../arm-none-eabi/lib/armv7e-m/fpu\libg.a(lib_a-mprec.o)
                0x0800e7cc                . = ALIGN (0x4)

.ARM.extab
 *(.ARM.extab* .gnu.linkonce.armextab.*)

.ARM            0x0800e7cc        0x8
                0x0800e7cc                __exidx_start = .
 *(.ARM.exidx*)
 .ARM.exidx     0x0800e7cc        0x8 c:/eclipse-arm/gcc-4_8-2014/bin/../lib/gcc/arm-none-eabi/4.8.4/armv7e-m/fpu\libgcc.a(_divdi3.o)
 .ARM.exidx     0x0800e7d4        0x0 c:/eclipse-arm/gcc-4_8-2014/bin/../lib/gcc/arm-none-eabi/4.8.4/armv7e-m/fpu\libgcc.a(_udivdi3.o)
                                  0x8 (size before relaxing)
                0x0800e7d4                __exidx_end = .

.rel.dyn        0x0800e7d4        0x0
 .rel.iplt      0x00000000        0x0 c:/eclipse-arm/gcc-4_8-2014/bin/../lib/gcc/arm-none-eabi/4.8.4/armv7e-m/fpu/crtbegin.o

.preinit_array  0x0800e7d4        0x0
                0x0800e7d4                PROVIDE (__preinit_array_start, .)
 *(.preinit_array*)
                0x0800e7d4                PROVIDE (__preinit_array_end, .)

.init_array     0x0800e7d4        0x8
                0x0800e7d4                PROVIDE (__init_array_start, .)
 *(SORT(.init_array.*))
 .init_array.00000
                0x0800e7d4        0x4 c:/eclipse-arm/gcc-4_8-2014/bin/../lib/gcc/arm-none-eabi/4.8.4/../../../../arm-none-eabi/lib/armv7e-m/fpu\libg.a(lib_a-__call_atexit.o)
 *(.init_array*)
 .init_array    0x0800e7d8        0x4 c:/eclipse-arm/gcc-4_8-2014/bin/../lib/gcc/arm-none-eabi/4.8.4/armv7e-m/fpu/crtbegin.o
                0x0800e7dc                PROVIDE (__init_array_end, .)

.fini_array     0x0800e7dc        0x4
                0x0800e7dc                PROVIDE (__fini_array_start, .)
 *(SORT(.fini_array.*))
 *(.fini_array*)
 .fini_array    0x0800e7dc        0x4 c:/eclipse-arm/gcc-4_8-2014/bin/../lib/gcc/arm-none-eabi/4.8.4/armv7e-m/fpu/crtbegin.o
                0x0800e7e0                PROVIDE (__fini_array_end, .)
                0x0800e7e0                _sidata = LOADADDR (.data)

.data           0x20000000      0x894 load address 0x0800e7e0
                0x20000000                . = ALIGN (0x4)
                0x20000000                _sdata = .
 *(.data)
 *(.data*)
 .data.Blink    0x20000000        0xc ./ZHONX_III/TimesBase/TimesBase.o
                0x20000000                Blink
 *fill*         0x2000000c        0x4 
 .data.Alfa     0x20000010        0x8 ./ZHONX_III/Peripherals/Gyroscope/ADXRS620.o
                0x20000010                Alfa
 .data.SystemCoreClock
                0x20000018        0x4 ./ZHONX_III/Drivers/CMSIS/Device/ST/STM32F4xx/Source/Templates/system_stm32f4xx.o
                0x20000018                SystemCoreClock
 *fill*         0x2000001c        0x4 
 .data.impure_data
                0x20000020      0x428 c:/eclipse-arm/gcc-4_8-2014/bin/../lib/gcc/arm-none-eabi/4.8.4/../../../../arm-none-eabi/lib/armv7e-m/fpu\libg.a(lib_a-impure.o)
 .data._impure_ptr
                0x20000448        0x4 c:/eclipse-arm/gcc-4_8-2014/bin/../lib/gcc/arm-none-eabi/4.8.4/../../../../arm-none-eabi/lib/armv7e-m/fpu\libg.a(lib_a-impure.o)
                0x20000448                _impure_ptr
 .data.lconv    0x2000044c       0x38 c:/eclipse-arm/gcc-4_8-2014/bin/../lib/gcc/arm-none-eabi/4.8.4/../../../../arm-none-eabi/lib/armv7e-m/fpu\libg.a(lib_a-locale.o)
 .data.__malloc_av_
                0x20000484      0x408 c:/eclipse-arm/gcc-4_8-2014/bin/../lib/gcc/arm-none-eabi/4.8.4/../../../../arm-none-eabi/lib/armv7e-m/fpu\libg.a(lib_a-mallocr.o)
                0x20000484                __malloc_av_
 .data.__malloc_trim_threshold
                0x2000088c        0x4 c:/eclipse-arm/gcc-4_8-2014/bin/../lib/gcc/arm-none-eabi/4.8.4/../../../../arm-none-eabi/lib/armv7e-m/fpu\libg.a(lib_a-mallocr.o)
                0x2000088c                __malloc_trim_threshold
 .data.__malloc_sbrk_base
                0x20000890        0x4 c:/eclipse-arm/gcc-4_8-2014/bin/../lib/gcc/arm-none-eabi/4.8.4/../../../../arm-none-eabi/lib/armv7e-m/fpu\libg.a(lib_a-mallocr.o)
                0x20000890                __malloc_sbrk_base
                0x20000894                . = ALIGN (0x4)
                0x20000894                _edata = .
                0x0800f074                _siccmram = LOADADDR (.ccmram)

.jcr            0x20000894        0x0 load address 0x0800f074
 .jcr           0x20000894        0x0 c:/eclipse-arm/gcc-4_8-2014/bin/../lib/gcc/arm-none-eabi/4.8.4/armv7e-m/fpu/crtbegin.o

.igot.plt       0x20000894        0x0 load address 0x0800f074
 .igot.plt      0x00000000        0x0 c:/eclipse-arm/gcc-4_8-2014/bin/../lib/gcc/arm-none-eabi/4.8.4/armv7e-m/fpu/crtbegin.o

.ccmram         0x10000000        0x0 load address 0x0800f074
                0x10000000                . = ALIGN (0x4)
                0x10000000                _sccmram = .
 *(.ccmram)
 *(.ccmram*)
                0x10000000                . = ALIGN (0x4)
                0x10000000                _eccmram = .
                0x10000000                . = ALIGN (0x4)

.bss            0x20000898      0x85c
                0x20000898                _sbss = .
                0x20000898                __bss_start__ = _sbss
 *(.bss)
 .bss           0x20000898       0x1c c:/eclipse-arm/gcc-4_8-2014/bin/../lib/gcc/arm-none-eabi/4.8.4/armv7e-m/fpu/crtbegin.o
 *(.bss*)
 .bss.cnt_led.10327
                0x200008b4        0x4 ./ZHONX_III/TimesBase/TimesBase.o
 .bss.heap_end.5585
                0x200008b8        0x4 ./ZHONX_III/Src/syscalls.o
 .bss.uhADCxConvertedValue_LDIAG
                0x200008bc        0x4 ./ZHONX_III/Peripherals/Telemeters/Telemeters.o
                0x200008bc                uhADCxConvertedValue_LDIAG
 .bss.uhADCxConvertedValue_RDIAG
                0x200008c0        0x4 ./ZHONX_III/Peripherals/Telemeters/Telemeters.o
                0x200008c0                uhADCxConvertedValue_RDIAG
 .bss.uhADCxConvertedValue_LFRONT
                0x200008c4        0x4 ./ZHONX_III/Peripherals/Telemeters/Telemeters.o
                0x200008c4                uhADCxConvertedValue_LFRONT
 .bss.uhADCxConvertedValue_RFRONT
                0x200008c8        0x4 ./ZHONX_III/Peripherals/Telemeters/Telemeters.o
                0x200008c8                uhADCxConvertedValue_RFRONT
 .bss.L_diag_distance
                0x200008cc        0x4 ./ZHONX_III/Peripherals/Telemeters/Telemeters.o
                0x200008cc                L_diag_distance
 .bss.R_diag_distance
                0x200008d0        0x4 ./ZHONX_III/Peripherals/Telemeters/Telemeters.o
                0x200008d0                R_diag_distance
 .bss.L_front_distance
                0x200008d4        0x4 ./ZHONX_III/Peripherals/Telemeters/Telemeters.o
                0x200008d4                L_front_distance
 .bss.R_front_distance
                0x200008d8        0x4 ./ZHONX_III/Peripherals/Telemeters/Telemeters.o
                0x200008d8                R_front_distance
 .bss.selector.7838
                0x200008dc        0x1 ./ZHONX_III/Peripherals/Telemeters/Telemeters.o
 *fill*         0x200008dd        0x3 
 .bss.Beta      0x200008e0        0x8 ./ZHONX_III/Peripherals/Gyroscope/ADXRS620.o
                0x200008e0                Beta
 .bss.gyro_Current_Angle
                0x200008e8        0x4 ./ZHONX_III/Peripherals/Gyroscope/ADXRS620.o
                0x200008e8                gyro_Current_Angle
 .bss.left_encoder
                0x200008ec        0x8 ./ZHONX_III/Peripherals/Encoders/IE512.o
                0x200008ec                left_encoder
 .bss.right_encoder
                0x200008f4        0x8 ./ZHONX_III/Peripherals/Encoders/IE512.o
                0x200008f4                right_encoder
 .bss.buffer    0x200008fc      0x400 ./ZHONX_III/Peripherals/Display/src/ssd1306.o
                0x200008fc                buffer
 .bss.consigne  0x20000cfc        0x4 ./ZHONX_III/Enslavements/Straight_Controls/Straight_Controls.o
                0x20000cfc                consigne
 .bss.Pulses    0x20000d00        0x8 ./ZHONX_III/Enslavements/Straight_Controls/Straight_Controls.o
                0x20000d00                Pulses
 .bss.uwTick    0x20000d08        0x4 ./ZHONX_III/Drivers/STM32F4xx_HAL_Driver/Src/stm32f4xx_hal.o
 .bss.__malloc_max_total_mem
                0x20000d0c        0x4 c:/eclipse-arm/gcc-4_8-2014/bin/../lib/gcc/arm-none-eabi/4.8.4/../../../../arm-none-eabi/lib/armv7e-m/fpu\libg.a(lib_a-mallocr.o)
                0x20000d0c                __malloc_max_total_mem
 .bss.__malloc_max_sbrked_mem
                0x20000d10        0x4 c:/eclipse-arm/gcc-4_8-2014/bin/../lib/gcc/arm-none-eabi/4.8.4/../../../../arm-none-eabi/lib/armv7e-m/fpu\libg.a(lib_a-mallocr.o)
                0x20000d10                __malloc_max_sbrked_mem
 .bss.__malloc_top_pad
                0x20000d14        0x4 c:/eclipse-arm/gcc-4_8-2014/bin/../lib/gcc/arm-none-eabi/4.8.4/../../../../arm-none-eabi/lib/armv7e-m/fpu\libg.a(lib_a-mallocr.o)
                0x20000d14                __malloc_top_pad
 .bss.__malloc_current_mallinfo
                0x20000d18       0x28 c:/eclipse-arm/gcc-4_8-2014/bin/../lib/gcc/arm-none-eabi/4.8.4/../../../../arm-none-eabi/lib/armv7e-m/fpu\libg.a(lib_a-mallocr.o)
                0x20000d18                __malloc_current_mallinfo
 *(COMMON)
 COMMON         0x20000d40       0x14 ./ZHONX_III/TimesBase/TimesBase.o
                0x20000d40                GPIO_InitStruct
 COMMON         0x20000d54      0x34c ./ZHONX_III/Src/main.o
                0x20000d54                htim8
                0x20000d90                htim4
                0x20000dcc                huart3
                0x20000e08                hdma_i2c1_tx
                0x20000e58                hi2c1
                0x20000e90                htim10
                0x20000ecc                htim3
                0x20000f08                hadc1
                0x20000f4c                hdma_adc1
                0x20000f9c                htim6
                0x20000fd8                htim1
                0x20001014                hdma_i2c1_rx
                0x20001064                htim7
 COMMON         0x200010a0        0x4 ./ZHONX_III/Peripherals/Gyroscope/ADXRS620.o
                0x200010a0                DMA_ADC_Gyro_Rate
 COMMON         0x200010a4       0x4c ./ZHONX_III/Enslavements/Straight_Controls/Straight_Controls.o
                0x200010a4                trajectory_control
                0x200010b0                gyro_pid_instance
                0x200010d4                sConfigOC
 COMMON         0x200010f0        0x4 c:/eclipse-arm/gcc-4_8-2014/bin/../lib/gcc/arm-none-eabi/4.8.4/../../../../arm-none-eabi/lib/armv7e-m/fpu\libg.a(lib_a-reent.o)
                0x200010f0                errno
                0x200010f4                . = ALIGN (0x4)
                0x200010f4                _ebss = .
                0x200010f4                __bss_end__ = _ebss

._user_heap_stack
                0x200010f4      0x400
                0x200010f4                . = ALIGN (0x4)
                0x200010f4                PROVIDE (end, .)
                0x200010f4                PROVIDE (_end, .)
                0x200010f4                . = (. + _Min_Heap_Size)
                0x200014f4                . = (. + _Min_Stack_Size)
 *fill*         0x200010f4      0x400 
                0x200014f4                . = ALIGN (0x4)

/DISCARD/
 libc.a(*)
 libm.a(*)
 libgcc.a(*)

.ARM.attributes
                0x00000000       0x30
 *(.ARM.attributes)
 .ARM.attributes
                0x00000000       0x22 c:/eclipse-arm/gcc-4_8-2014/bin/../lib/gcc/arm-none-eabi/4.8.4/armv7e-m/fpu/crti.o
 .ARM.attributes
                0x00000022       0x34 c:/eclipse-arm/gcc-4_8-2014/bin/../lib/gcc/arm-none-eabi/4.8.4/armv7e-m/fpu/crtbegin.o
 .ARM.attributes
                0x00000056       0x39 ./ZHONX_III/TimesBase/TimesBase.o
 .ARM.attributes
                0x0000008f       0x39 ./ZHONX_III/Src/main.o
 .ARM.attributes
                0x000000c8       0x39 ./ZHONX_III/Src/stm32f4xx_hal_msp.o
 .ARM.attributes
                0x00000101       0x39 ./ZHONX_III/Src/stm32f4xx_it.o
 .ARM.attributes
                0x0000013a       0x39 ./ZHONX_III/Src/syscalls.o
 .ARM.attributes
                0x00000173       0x39 ./ZHONX_III/Src/user_it_callback.o
 .ARM.attributes
                0x000001ac       0x39 ./ZHONX_III/Peripherals/Tests/tests.o
 .ARM.attributes
                0x000001e5       0x39 ./ZHONX_III/Peripherals/Telemeters/Telemeters.o
 .ARM.attributes
                0x0000021e       0x39 ./ZHONX_III/Peripherals/Gyroscope/ADXRS620.o
 .ARM.attributes
                0x00000257       0x39 ./ZHONX_III/Peripherals/Expander/PCF8574.o
 .ARM.attributes
                0x00000290       0x39 ./ZHONX_III/Peripherals/Encoders/IE512.o
 .ARM.attributes
                0x000002c9       0x39 ./ZHONX_III/Peripherals/Display/src/smallfonts.o
 .ARM.attributes
                0x00000302       0x39 ./ZHONX_III/Peripherals/Display/src/ssd1306.o
 .ARM.attributes
                0x0000033b       0x39 ./ZHONX_III/Enslavements/Straight_Controls/Straight_Controls.o
 .ARM.attributes
                0x00000374       0x39 ./ZHONX_III/Enslavements/PID/PID.o
 .ARM.attributes
                0x000003ad       0x39 ./ZHONX_III/Drivers/STM32F4xx_HAL_Driver/Src/stm32f4xx_hal.o
 .ARM.attributes
                0x000003e6       0x39 ./ZHONX_III/Drivers/STM32F4xx_HAL_Driver/Src/stm32f4xx_hal_adc.o
 .ARM.attributes
                0x0000041f       0x39 ./ZHONX_III/Drivers/STM32F4xx_HAL_Driver/Src/stm32f4xx_hal_cortex.o
 .ARM.attributes
                0x00000458       0x39 ./ZHONX_III/Drivers/STM32F4xx_HAL_Driver/Src/stm32f4xx_hal_dma.o
 .ARM.attributes
                0x00000491       0x39 ./ZHONX_III/Drivers/STM32F4xx_HAL_Driver/Src/stm32f4xx_hal_gpio.o
 .ARM.attributes
                0x000004ca       0x39 ./ZHONX_III/Drivers/STM32F4xx_HAL_Driver/Src/stm32f4xx_hal_i2c.o
 .ARM.attributes
                0x00000503       0x39 ./ZHONX_III/Drivers/STM32F4xx_HAL_Driver/Src/stm32f4xx_hal_rcc.o
 .ARM.attributes
                0x0000053c       0x39 ./ZHONX_III/Drivers/STM32F4xx_HAL_Driver/Src/stm32f4xx_hal_tim.o
 .ARM.attributes
                0x00000575       0x39 ./ZHONX_III/Drivers/STM32F4xx_HAL_Driver/Src/stm32f4xx_hal_tim_ex.o
 .ARM.attributes
                0x000005ae       0x39 ./ZHONX_III/Drivers/STM32F4xx_HAL_Driver/Src/stm32f4xx_hal_uart.o
 .ARM.attributes
                0x000005e7       0x21 ./ZHONX_III/Drivers/CMSIS/Device/ST/STM32F4xx/Source/Templates/gcc/startup_stm32f405xx.o
 .ARM.attributes
                0x00000608       0x39 ./ZHONX_III/Drivers/CMSIS/Device/ST/STM32F4xx/Source/Templates/system_stm32f4xx.o
 .ARM.attributes
                0x00000641       0x39 ./ZHONX_III/DSP_lib/ControllerFunctions/arm_pid_init_f32.o
 .ARM.attributes
                0x0000067a       0x22 c:/eclipse-arm/gcc-4_8-2014/bin/../lib/gcc/arm-none-eabi/4.8.4/armv7e-m/fpu\libgcc.a(_arm_addsubdf3.o)
 .ARM.attributes
                0x0000069c       0x22 c:/eclipse-arm/gcc-4_8-2014/bin/../lib/gcc/arm-none-eabi/4.8.4/armv7e-m/fpu\libgcc.a(_arm_muldivdf3.o)
 .ARM.attributes
                0x000006be       0x22 c:/eclipse-arm/gcc-4_8-2014/bin/../lib/gcc/arm-none-eabi/4.8.4/armv7e-m/fpu\libgcc.a(_arm_fixdfsi.o)
 .ARM.attributes
                0x000006e0       0x22 c:/eclipse-arm/gcc-4_8-2014/bin/../lib/gcc/arm-none-eabi/4.8.4/armv7e-m/fpu\libgcc.a(_arm_truncdfsf2.o)
 .ARM.attributes
                0x00000702       0x34 c:/eclipse-arm/gcc-4_8-2014/bin/../lib/gcc/arm-none-eabi/4.8.4/../../../../arm-none-eabi/lib/armv7e-m/fpu\libg.a(lib_a-impure.o)
 .ARM.attributes
                0x00000736       0x34 c:/eclipse-arm/gcc-4_8-2014/bin/../lib/gcc/arm-none-eabi/4.8.4/../../../../arm-none-eabi/lib/armv7e-m/fpu\libg.a(lib_a-init.o)
 .ARM.attributes
                0x0000076a       0x34 c:/eclipse-arm/gcc-4_8-2014/bin/../lib/gcc/arm-none-eabi/4.8.4/../../../../arm-none-eabi/lib/armv7e-m/fpu\libg.a(lib_a-memset.o)
 .ARM.attributes
                0x0000079e       0x34 c:/eclipse-arm/gcc-4_8-2014/bin/../lib/gcc/arm-none-eabi/4.8.4/../../../../arm-none-eabi/lib/armv7e-m/fpu\libg.a(lib_a-reent.o)
 .ARM.attributes
                0x000007d2       0x34 c:/eclipse-arm/gcc-4_8-2014/bin/../lib/gcc/arm-none-eabi/4.8.4/../../../../arm-none-eabi/lib/armv7e-m/fpu\libg.a(lib_a-sprintf.o)
 .ARM.attributes
                0x00000806       0x34 c:/eclipse-arm/gcc-4_8-2014/bin/../lib/gcc/arm-none-eabi/4.8.4/../../../../arm-none-eabi/lib/armv7e-m/fpu\libg.a(lib_a-strlen.o)
 .ARM.attributes
                0x0000083a       0x34 c:/eclipse-arm/gcc-4_8-2014/bin/../lib/gcc/arm-none-eabi/4.8.4/../../../../arm-none-eabi/lib/armv7e-m/fpu\libg.a(lib_a-svfprintf.o)
 .ARM.attributes
                0x0000086e       0x34 c:/eclipse-arm/gcc-4_8-2014/bin/../lib/gcc/arm-none-eabi/4.8.4/../../../../arm-none-eabi/lib/armv7e-m/fpu\libg.a(lib_a-__call_atexit.o)
 .ARM.attributes
                0x000008a2       0x34 c:/eclipse-arm/gcc-4_8-2014/bin/../lib/gcc/arm-none-eabi/4.8.4/../../../../arm-none-eabi/lib/armv7e-m/fpu\libg.a(lib_a-atexit.o)
 .ARM.attributes
                0x000008d6       0x34 c:/eclipse-arm/gcc-4_8-2014/bin/../lib/gcc/arm-none-eabi/4.8.4/../../../../arm-none-eabi/lib/armv7e-m/fpu\libg.a(lib_a-dtoa.o)
 .ARM.attributes
                0x0000090a       0x34 c:/eclipse-arm/gcc-4_8-2014/bin/../lib/gcc/arm-none-eabi/4.8.4/../../../../arm-none-eabi/lib/armv7e-m/fpu\libg.a(lib_a-fini.o)
 .ARM.attributes
                0x0000093e       0x34 c:/eclipse-arm/gcc-4_8-2014/bin/../lib/gcc/arm-none-eabi/4.8.4/../../../../arm-none-eabi/lib/armv7e-m/fpu\libg.a(lib_a-freer.o)
 .ARM.attributes
                0x00000972       0x34 c:/eclipse-arm/gcc-4_8-2014/bin/../lib/gcc/arm-none-eabi/4.8.4/../../../../arm-none-eabi/lib/armv7e-m/fpu\libg.a(lib_a-locale.o)
 .ARM.attributes
                0x000009a6       0x34 c:/eclipse-arm/gcc-4_8-2014/bin/../lib/gcc/arm-none-eabi/4.8.4/../../../../arm-none-eabi/lib/armv7e-m/fpu\libg.a(lib_a-mallocr.o)
 .ARM.attributes
                0x000009da       0x34 c:/eclipse-arm/gcc-4_8-2014/bin/../lib/gcc/arm-none-eabi/4.8.4/../../../../arm-none-eabi/lib/armv7e-m/fpu\libg.a(lib_a-memchr-stub.o)
 .ARM.attributes
                0x00000a0e       0x20 c:/eclipse-arm/gcc-4_8-2014/bin/../lib/gcc/arm-none-eabi/4.8.4/../../../../arm-none-eabi/lib/armv7e-m/fpu\libg.a(lib_a-memcpy.o)
 .ARM.attributes
                0x00000a2e       0x34 c:/eclipse-arm/gcc-4_8-2014/bin/../lib/gcc/arm-none-eabi/4.8.4/../../../../arm-none-eabi/lib/armv7e-m/fpu\libg.a(lib_a-mlock.o)
 .ARM.attributes
                0x00000a62       0x34 c:/eclipse-arm/gcc-4_8-2014/bin/../lib/gcc/arm-none-eabi/4.8.4/../../../../arm-none-eabi/lib/armv7e-m/fpu\libg.a(lib_a-mprec.o)
 .ARM.attributes
                0x00000a96       0x34 c:/eclipse-arm/gcc-4_8-2014/bin/../lib/gcc/arm-none-eabi/4.8.4/../../../../arm-none-eabi/lib/armv7e-m/fpu\libg.a(lib_a-s_fpclassify.o)
 .ARM.attributes
                0x00000aca       0x34 c:/eclipse-arm/gcc-4_8-2014/bin/../lib/gcc/arm-none-eabi/4.8.4/../../../../arm-none-eabi/lib/armv7e-m/fpu\libg.a(lib_a-sbrkr.o)
 .ARM.attributes
                0x00000afe       0x34 c:/eclipse-arm/gcc-4_8-2014/bin/../lib/gcc/arm-none-eabi/4.8.4/../../../../arm-none-eabi/lib/armv7e-m/fpu\libg.a(lib_a-svfiprintf.o)
 .ARM.attributes
                0x00000b32       0x34 c:/eclipse-arm/gcc-4_8-2014/bin/../lib/gcc/arm-none-eabi/4.8.4/../../../../arm-none-eabi/lib/armv7e-m/fpu\libg.a(lib_a-__atexit.o)
 .ARM.attributes
                0x00000b66       0x34 c:/eclipse-arm/gcc-4_8-2014/bin/../lib/gcc/arm-none-eabi/4.8.4/../../../../arm-none-eabi/lib/armv7e-m/fpu\libg.a(lib_a-callocr.o)
 .ARM.attributes
                0x00000b9a       0x34 c:/eclipse-arm/gcc-4_8-2014/bin/../lib/gcc/arm-none-eabi/4.8.4/../../../../arm-none-eabi/lib/armv7e-m/fpu\libg.a(lib_a-memmove.o)
 .ARM.attributes
                0x00000bce       0x34 c:/eclipse-arm/gcc-4_8-2014/bin/../lib/gcc/arm-none-eabi/4.8.4/../../../../arm-none-eabi/lib/armv7e-m/fpu\libg.a(lib_a-reallocr.o)
 .ARM.attributes
                0x00000c02       0x22 c:/eclipse-arm/gcc-4_8-2014/bin/../lib/gcc/arm-none-eabi/4.8.4/armv7e-m/fpu\libgcc.a(_arm_cmpdf2.o)
 .ARM.attributes
                0x00000c24       0x22 c:/eclipse-arm/gcc-4_8-2014/bin/../lib/gcc/arm-none-eabi/4.8.4/armv7e-m/fpu\libgcc.a(_aeabi_uldivmod.o)
 .ARM.attributes
                0x00000c46       0x34 c:/eclipse-arm/gcc-4_8-2014/bin/../lib/gcc/arm-none-eabi/4.8.4/armv7e-m/fpu\libgcc.a(bpabi.o)
 .ARM.attributes
                0x00000c7a       0x22 c:/eclipse-arm/gcc-4_8-2014/bin/../lib/gcc/arm-none-eabi/4.8.4/armv7e-m/fpu\libgcc.a(_dvmd_tls.o)
 .ARM.attributes
                0x00000c9c       0x34 c:/eclipse-arm/gcc-4_8-2014/bin/../lib/gcc/arm-none-eabi/4.8.4/armv7e-m/fpu\libgcc.a(_divdi3.o)
 .ARM.attributes
                0x00000cd0       0x34 c:/eclipse-arm/gcc-4_8-2014/bin/../lib/gcc/arm-none-eabi/4.8.4/armv7e-m/fpu\libgcc.a(_udivdi3.o)
 .ARM.attributes
                0x00000d04       0x22 c:/eclipse-arm/gcc-4_8-2014/bin/../lib/gcc/arm-none-eabi/4.8.4/armv7e-m/fpu/crtn.o
OUTPUT(ZHONX_III.elf elf32-littlearm)

.debug_info     0x00000000    0x12f99
 .debug_info    0x00000000      0x7f2 ./ZHONX_III/TimesBase/TimesBase.o
 .debug_info    0x000007f2     0x17d1 ./ZHONX_III/Src/main.o
 .debug_info    0x00001fc3     0x1341 ./ZHONX_III/Src/stm32f4xx_hal_msp.o
 .debug_info    0x00003304      0xabe ./ZHONX_III/Src/stm32f4xx_it.o
 .debug_info    0x00003dc2      0x66e ./ZHONX_III/Src/syscalls.o
 .debug_info    0x00004430      0x5c6 ./ZHONX_III/Src/user_it_callback.o
 .debug_info    0x000049f6     0x122f ./ZHONX_III/Peripherals/Tests/tests.o
 .debug_info    0x00005c25      0xad7 ./ZHONX_III/Peripherals/Telemeters/Telemeters.o
 .debug_info    0x000066fc      0x7ba ./ZHONX_III/Peripherals/Gyroscope/ADXRS620.o
 .debug_info    0x00006eb6      0x71a ./ZHONX_III/Peripherals/Expander/PCF8574.o
 .debug_info    0x000075d0      0x70e ./ZHONX_III/Peripherals/Encoders/IE512.o
 .debug_info    0x00007cde      0x1a5 ./ZHONX_III/Peripherals/Display/src/smallfonts.o
 .debug_info    0x00007e83      0xf3b ./ZHONX_III/Peripherals/Display/src/ssd1306.o
 .debug_info    0x00008dbe      0xa8f ./ZHONX_III/Enslavements/Straight_Controls/Straight_Controls.o
 .debug_info    0x0000984d      0x2db ./ZHONX_III/Enslavements/PID/PID.o
 .debug_info    0x00009b28      0x7b3 ./ZHONX_III/Drivers/STM32F4xx_HAL_Driver/Src/stm32f4xx_hal.o
 .debug_info    0x0000a2db      0xc22 ./ZHONX_III/Drivers/STM32F4xx_HAL_Driver/Src/stm32f4xx_hal_adc.o
 .debug_info    0x0000aefd      0xb53 ./ZHONX_III/Drivers/STM32F4xx_HAL_Driver/Src/stm32f4xx_hal_cortex.o
 .debug_info    0x0000ba50      0x634 ./ZHONX_III/Drivers/STM32F4xx_HAL_Driver/Src/stm32f4xx_hal_dma.o
 .debug_info    0x0000c084      0x6d4 ./ZHONX_III/Drivers/STM32F4xx_HAL_Driver/Src/stm32f4xx_hal_gpio.o
 .debug_info    0x0000c758     0x1554 ./ZHONX_III/Drivers/STM32F4xx_HAL_Driver/Src/stm32f4xx_hal_i2c.o
 .debug_info    0x0000dcac      0xe23 ./ZHONX_III/Drivers/STM32F4xx_HAL_Driver/Src/stm32f4xx_hal_rcc.o
 .debug_info    0x0000eacf     0x20e8 ./ZHONX_III/Drivers/STM32F4xx_HAL_Driver/Src/stm32f4xx_hal_tim.o
 .debug_info    0x00010bb7      0xf06 ./ZHONX_III/Drivers/STM32F4xx_HAL_Driver/Src/stm32f4xx_hal_tim_ex.o
 .debug_info    0x00011abd      0xe35 ./ZHONX_III/Drivers/STM32F4xx_HAL_Driver/Src/stm32f4xx_hal_uart.o
 .debug_info    0x000128f2       0xa7 ./ZHONX_III/Drivers/CMSIS/Device/ST/STM32F4xx/Source/Templates/gcc/startup_stm32f405xx.o
 .debug_info    0x00012999      0x49e ./ZHONX_III/Drivers/CMSIS/Device/ST/STM32F4xx/Source/Templates/system_stm32f4xx.o
 .debug_info    0x00012e37      0x162 ./ZHONX_III/DSP_lib/ControllerFunctions/arm_pid_init_f32.o

.debug_abbrev   0x00000000     0x2dbd
 .debug_abbrev  0x00000000      0x1ab ./ZHONX_III/TimesBase/TimesBase.o
 .debug_abbrev  0x000001ab      0x1fd ./ZHONX_III/Src/main.o
 .debug_abbrev  0x000003a8      0x197 ./ZHONX_III/Src/stm32f4xx_hal_msp.o
 .debug_abbrev  0x0000053f      0x130 ./ZHONX_III/Src/stm32f4xx_it.o
 .debug_abbrev  0x0000066f      0x168 ./ZHONX_III/Src/syscalls.o
 .debug_abbrev  0x000007d7      0x141 ./ZHONX_III/Src/user_it_callback.o
 .debug_abbrev  0x00000918      0x210 ./ZHONX_III/Peripherals/Tests/tests.o
 .debug_abbrev  0x00000b28      0x17a ./ZHONX_III/Peripherals/Telemeters/Telemeters.o
 .debug_abbrev  0x00000ca2      0x1a3 ./ZHONX_III/Peripherals/Gyroscope/ADXRS620.o
 .debug_abbrev  0x00000e45      0x1c1 ./ZHONX_III/Peripherals/Expander/PCF8574.o
 .debug_abbrev  0x00001006      0x17a ./ZHONX_III/Peripherals/Encoders/IE512.o
 .debug_abbrev  0x00001180       0x91 ./ZHONX_III/Peripherals/Display/src/smallfonts.o
 .debug_abbrev  0x00001211      0x294 ./ZHONX_III/Peripherals/Display/src/ssd1306.o
 .debug_abbrev  0x000014a5      0x1c1 ./ZHONX_III/Enslavements/Straight_Controls/Straight_Controls.o
 .debug_abbrev  0x00001666      0x192 ./ZHONX_III/Enslavements/PID/PID.o
 .debug_abbrev  0x000017f8      0x18c ./ZHONX_III/Drivers/STM32F4xx_HAL_Driver/Src/stm32f4xx_hal.o
 .debug_abbrev  0x00001984      0x212 ./ZHONX_III/Drivers/STM32F4xx_HAL_Driver/Src/stm32f4xx_hal_adc.o
 .debug_abbrev  0x00001b96      0x299 ./ZHONX_III/Drivers/STM32F4xx_HAL_Driver/Src/stm32f4xx_hal_cortex.o
 .debug_abbrev  0x00001e2f      0x1c2 ./ZHONX_III/Drivers/STM32F4xx_HAL_Driver/Src/stm32f4xx_hal_dma.o
 .debug_abbrev  0x00001ff1      0x1a1 ./ZHONX_III/Drivers/STM32F4xx_HAL_Driver/Src/stm32f4xx_hal_gpio.o
 .debug_abbrev  0x00002192      0x1d6 ./ZHONX_III/Drivers/STM32F4xx_HAL_Driver/Src/stm32f4xx_hal_i2c.o
 .debug_abbrev  0x00002368      0x289 ./ZHONX_III/Drivers/STM32F4xx_HAL_Driver/Src/stm32f4xx_hal_rcc.o
 .debug_abbrev  0x000025f1      0x204 ./ZHONX_III/Drivers/STM32F4xx_HAL_Driver/Src/stm32f4xx_hal_tim.o
 .debug_abbrev  0x000027f5      0x20c ./ZHONX_III/Drivers/STM32F4xx_HAL_Driver/Src/stm32f4xx_hal_tim_ex.o
 .debug_abbrev  0x00002a01      0x1e7 ./ZHONX_III/Drivers/STM32F4xx_HAL_Driver/Src/stm32f4xx_hal_uart.o
 .debug_abbrev  0x00002be8       0x12 ./ZHONX_III/Drivers/CMSIS/Device/ST/STM32F4xx/Source/Templates/gcc/startup_stm32f405xx.o
 .debug_abbrev  0x00002bfa      0x101 ./ZHONX_III/Drivers/CMSIS/Device/ST/STM32F4xx/Source/Templates/system_stm32f4xx.o
 .debug_abbrev  0x00002cfb       0xc2 ./ZHONX_III/DSP_lib/ControllerFunctions/arm_pid_init_f32.o

.debug_aranges  0x00000000     0x1158
 .debug_aranges
                0x00000000       0x40 ./ZHONX_III/TimesBase/TimesBase.o
 .debug_aranges
                0x00000040       0x88 ./ZHONX_III/Src/main.o
 .debug_aranges
                0x000000c8       0x78 ./ZHONX_III/Src/stm32f4xx_hal_msp.o
 .debug_aranges
                0x00000140       0x60 ./ZHONX_III/Src/stm32f4xx_it.o
 .debug_aranges
                0x000001a0       0xb0 ./ZHONX_III/Src/syscalls.o
 .debug_aranges
                0x00000250       0x20 ./ZHONX_III/Src/user_it_callback.o
 .debug_aranges
                0x00000270       0x80 ./ZHONX_III/Peripherals/Tests/tests.o
 .debug_aranges
                0x000002f0       0x28 ./ZHONX_III/Peripherals/Telemeters/Telemeters.o
 .debug_aranges
                0x00000318       0x38 ./ZHONX_III/Peripherals/Gyroscope/ADXRS620.o
 .debug_aranges
                0x00000350       0x48 ./ZHONX_III/Peripherals/Expander/PCF8574.o
 .debug_aranges
                0x00000398       0x30 ./ZHONX_III/Peripherals/Encoders/IE512.o
 .debug_aranges
                0x000003c8       0x18 ./ZHONX_III/Peripherals/Display/src/smallfonts.o
 .debug_aranges
                0x000003e0       0xd8 ./ZHONX_III/Peripherals/Display/src/ssd1306.o
 .debug_aranges
                0x000004b8       0x38 ./ZHONX_III/Enslavements/Straight_Controls/Straight_Controls.o
 .debug_aranges
                0x000004f0       0x40 ./ZHONX_III/Enslavements/PID/PID.o
 .debug_aranges
                0x00000530       0xc0 ./ZHONX_III/Drivers/STM32F4xx_HAL_Driver/Src/stm32f4xx_hal.o
 .debug_aranges
                0x000005f0       0xe8 ./ZHONX_III/Drivers/STM32F4xx_HAL_Driver/Src/stm32f4xx_hal_adc.o
 .debug_aranges
                0x000006d8      0x100 ./ZHONX_III/Drivers/STM32F4xx_HAL_Driver/Src/stm32f4xx_hal_cortex.o
 .debug_aranges
                0x000007d8       0x68 ./ZHONX_III/Drivers/STM32F4xx_HAL_Driver/Src/stm32f4xx_hal_dma.o
 .debug_aranges
                0x00000840       0x58 ./ZHONX_III/Drivers/STM32F4xx_HAL_Driver/Src/stm32f4xx_hal_gpio.o
 .debug_aranges
                0x00000898      0x1e8 ./ZHONX_III/Drivers/STM32F4xx_HAL_Driver/Src/stm32f4xx_hal_i2c.o
 .debug_aranges
                0x00000a80       0x88 ./ZHONX_III/Drivers/STM32F4xx_HAL_Driver/Src/stm32f4xx_hal_rcc.o
 .debug_aranges
                0x00000b08      0x358 ./ZHONX_III/Drivers/STM32F4xx_HAL_Driver/Src/stm32f4xx_hal_tim.o
 .debug_aranges
                0x00000e60      0x140 ./ZHONX_III/Drivers/STM32F4xx_HAL_Driver/Src/stm32f4xx_hal_tim_ex.o
 .debug_aranges
                0x00000fa0      0x148 ./ZHONX_III/Drivers/STM32F4xx_HAL_Driver/Src/stm32f4xx_hal_uart.o
 .debug_aranges
                0x000010e8       0x28 ./ZHONX_III/Drivers/CMSIS/Device/ST/STM32F4xx/Source/Templates/gcc/startup_stm32f405xx.o
 .debug_aranges
                0x00001110       0x28 ./ZHONX_III/Drivers/CMSIS/Device/ST/STM32F4xx/Source/Templates/system_stm32f4xx.o
 .debug_aranges
                0x00001138       0x20 ./ZHONX_III/DSP_lib/ControllerFunctions/arm_pid_init_f32.o

.debug_ranges   0x00000000      0xf98
 .debug_ranges  0x00000000       0x30 ./ZHONX_III/TimesBase/TimesBase.o
 .debug_ranges  0x00000030       0x78 ./ZHONX_III/Src/main.o
 .debug_ranges  0x000000a8       0x68 ./ZHONX_III/Src/stm32f4xx_hal_msp.o
 .debug_ranges  0x00000110       0x50 ./ZHONX_III/Src/stm32f4xx_it.o
 .debug_ranges  0x00000160       0xa0 ./ZHONX_III/Src/syscalls.o
 .debug_ranges  0x00000200       0x10 ./ZHONX_III/Src/user_it_callback.o
 .debug_ranges  0x00000210       0x70 ./ZHONX_III/Peripherals/Tests/tests.o
 .debug_ranges  0x00000280       0x18 ./ZHONX_III/Peripherals/Telemeters/Telemeters.o
 .debug_ranges  0x00000298       0x28 ./ZHONX_III/Peripherals/Gyroscope/ADXRS620.o
 .debug_ranges  0x000002c0       0x38 ./ZHONX_III/Peripherals/Expander/PCF8574.o
 .debug_ranges  0x000002f8       0x20 ./ZHONX_III/Peripherals/Encoders/IE512.o
 .debug_ranges  0x00000318       0xc8 ./ZHONX_III/Peripherals/Display/src/ssd1306.o
 .debug_ranges  0x000003e0       0x28 ./ZHONX_III/Enslavements/Straight_Controls/Straight_Controls.o
 .debug_ranges  0x00000408       0x30 ./ZHONX_III/Enslavements/PID/PID.o
 .debug_ranges  0x00000438       0xb0 ./ZHONX_III/Drivers/STM32F4xx_HAL_Driver/Src/stm32f4xx_hal.o
 .debug_ranges  0x000004e8       0xd8 ./ZHONX_III/Drivers/STM32F4xx_HAL_Driver/Src/stm32f4xx_hal_adc.o
 .debug_ranges  0x000005c0       0xf0 ./ZHONX_III/Drivers/STM32F4xx_HAL_Driver/Src/stm32f4xx_hal_cortex.o
 .debug_ranges  0x000006b0       0x58 ./ZHONX_III/Drivers/STM32F4xx_HAL_Driver/Src/stm32f4xx_hal_dma.o
 .debug_ranges  0x00000708       0x48 ./ZHONX_III/Drivers/STM32F4xx_HAL_Driver/Src/stm32f4xx_hal_gpio.o
 .debug_ranges  0x00000750      0x1d8 ./ZHONX_III/Drivers/STM32F4xx_HAL_Driver/Src/stm32f4xx_hal_i2c.o
 .debug_ranges  0x00000928       0x78 ./ZHONX_III/Drivers/STM32F4xx_HAL_Driver/Src/stm32f4xx_hal_rcc.o
 .debug_ranges  0x000009a0      0x348 ./ZHONX_III/Drivers/STM32F4xx_HAL_Driver/Src/stm32f4xx_hal_tim.o
 .debug_ranges  0x00000ce8      0x130 ./ZHONX_III/Drivers/STM32F4xx_HAL_Driver/Src/stm32f4xx_hal_tim_ex.o
 .debug_ranges  0x00000e18      0x138 ./ZHONX_III/Drivers/STM32F4xx_HAL_Driver/Src/stm32f4xx_hal_uart.o
 .debug_ranges  0x00000f50       0x20 ./ZHONX_III/Drivers/CMSIS/Device/ST/STM32F4xx/Source/Templates/gcc/startup_stm32f405xx.o
 .debug_ranges  0x00000f70       0x18 ./ZHONX_III/Drivers/CMSIS/Device/ST/STM32F4xx/Source/Templates/system_stm32f4xx.o
 .debug_ranges  0x00000f88       0x10 ./ZHONX_III/DSP_lib/ControllerFunctions/arm_pid_init_f32.o

.debug_line     0x00000000     0x90c9
 .debug_line    0x00000000      0x2ef ./ZHONX_III/TimesBase/TimesBase.o
 .debug_line    0x000002ef      0x540 ./ZHONX_III/Src/main.o
 .debug_line    0x0000082f      0x3e9 ./ZHONX_III/Src/stm32f4xx_hal_msp.o
 .debug_line    0x00000c18      0x2da ./ZHONX_III/Src/stm32f4xx_it.o
 .debug_line    0x00000ef2      0x227 ./ZHONX_III/Src/syscalls.o
 .debug_line    0x00001119      0x236 ./ZHONX_III/Src/user_it_callback.o
 .debug_line    0x0000134f      0x6ce ./ZHONX_III/Peripherals/Tests/tests.o
 .debug_line    0x00001a1d      0x333 ./ZHONX_III/Peripherals/Telemeters/Telemeters.o
 .debug_line    0x00001d50      0x328 ./ZHONX_III/Peripherals/Gyroscope/ADXRS620.o
 .debug_line    0x00002078      0x2aa ./ZHONX_III/Peripherals/Expander/PCF8574.o
 .debug_line    0x00002322      0x2fe ./ZHONX_III/Peripherals/Encoders/IE512.o
 .debug_line    0x00002620       0xa7 ./ZHONX_III/Peripherals/Display/src/smallfonts.o
 .debug_line    0x000026c7      0x6c9 ./ZHONX_III/Peripherals/Display/src/ssd1306.o
 .debug_line    0x00002d90      0x3e2 ./ZHONX_III/Enslavements/Straight_Controls/Straight_Controls.o
 .debug_line    0x00003172      0x24e ./ZHONX_III/Enslavements/PID/PID.o
 .debug_line    0x000033c0      0x3ab ./ZHONX_III/Drivers/STM32F4xx_HAL_Driver/Src/stm32f4xx_hal.o
 .debug_line    0x0000376b      0x624 ./ZHONX_III/Drivers/STM32F4xx_HAL_Driver/Src/stm32f4xx_hal_adc.o
 .debug_line    0x00003d8f      0x480 ./ZHONX_III/Drivers/STM32F4xx_HAL_Driver/Src/stm32f4xx_hal_cortex.o
 .debug_line    0x0000420f      0xf5a ./ZHONX_III/Drivers/STM32F4xx_HAL_Driver/Src/stm32f4xx_hal_dma.o
 .debug_line    0x00005169      0x371 ./ZHONX_III/Drivers/STM32F4xx_HAL_Driver/Src/stm32f4xx_hal_gpio.o
 .debug_line    0x000054da      0xee5 ./ZHONX_III/Drivers/STM32F4xx_HAL_Driver/Src/stm32f4xx_hal_i2c.o
 .debug_line    0x000063bf      0x639 ./ZHONX_III/Drivers/STM32F4xx_HAL_Driver/Src/stm32f4xx_hal_rcc.o
 .debug_line    0x000069f8     0x1258 ./ZHONX_III/Drivers/STM32F4xx_HAL_Driver/Src/stm32f4xx_hal_tim.o
 .debug_line    0x00007c50      0x79f ./ZHONX_III/Drivers/STM32F4xx_HAL_Driver/Src/stm32f4xx_hal_tim_ex.o
 .debug_line    0x000083ef      0x8dc ./ZHONX_III/Drivers/STM32F4xx_HAL_Driver/Src/stm32f4xx_hal_uart.o
 .debug_line    0x00008ccb       0xb8 ./ZHONX_III/Drivers/CMSIS/Device/ST/STM32F4xx/Source/Templates/gcc/startup_stm32f405xx.o
 .debug_line    0x00008d83      0x1f7 ./ZHONX_III/Drivers/CMSIS/Device/ST/STM32F4xx/Source/Templates/system_stm32f4xx.o
 .debug_line    0x00008f7a      0x14f ./ZHONX_III/DSP_lib/ControllerFunctions/arm_pid_init_f32.o

.debug_str      0x00000000     0x4b49
 .debug_str     0x00000000      0x74d ./ZHONX_III/TimesBase/TimesBase.o
                                0x7f6 (size before relaxing)
 .debug_str     0x0000074d     0x1121 ./ZHONX_III/Src/main.o
                               0x186f (size before relaxing)
 .debug_str     0x0000186e      0x145 ./ZHONX_III/Src/stm32f4xx_hal_msp.o
                               0x14d2 (size before relaxing)
 .debug_str     0x000019b3       0xd3 ./ZHONX_III/Src/stm32f4xx_it.o
                                0xe78 (size before relaxing)
 .debug_str     0x00001a86      0x20d ./ZHONX_III/Src/syscalls.o
                                0x3ec (size before relaxing)
 .debug_str     0x00001c93       0x47 ./ZHONX_III/Src/user_it_callback.o
                                0x6a8 (size before relaxing)
 .debug_str     0x00001cda      0x2fe ./ZHONX_III/Peripherals/Tests/tests.o
                               0x10e9 (size before relaxing)
 .debug_str     0x00001fd8       0xc6 ./ZHONX_III/Peripherals/Telemeters/Telemeters.o
                                0xb04 (size before relaxing)
 .debug_str     0x0000209e       0x8d ./ZHONX_III/Peripherals/Gyroscope/ADXRS620.o
                                0x88e (size before relaxing)
 .debug_str     0x0000212b       0x72 ./ZHONX_III/Peripherals/Expander/PCF8574.o
                                0x7b5 (size before relaxing)
 .debug_str     0x0000219d       0x59 ./ZHONX_III/Peripherals/Encoders/IE512.o
                                0x7ce (size before relaxing)
 .debug_str     0x000021f6       0x83 ./ZHONX_III/Peripherals/Display/src/smallfonts.o
                                0x207 (size before relaxing)
 .debug_str     0x00002279      0x203 ./ZHONX_III/Peripherals/Display/src/ssd1306.o
                                0x982 (size before relaxing)
 .debug_str     0x0000247c       0xfd ./ZHONX_III/Enslavements/Straight_Controls/Straight_Controls.o
                                0xa2f (size before relaxing)
 .debug_str     0x00002579       0x4b ./ZHONX_III/Enslavements/PID/PID.o
                                0x2ca (size before relaxing)
 .debug_str     0x000025c4      0x240 ./ZHONX_III/Drivers/STM32F4xx_HAL_Driver/Src/stm32f4xx_hal.o
                                0xa34 (size before relaxing)
 .debug_str     0x00002804      0x288 ./ZHONX_III/Drivers/STM32F4xx_HAL_Driver/Src/stm32f4xx_hal_adc.o
                                0xa88 (size before relaxing)
 .debug_str     0x00002a8c      0x2f8 ./ZHONX_III/Drivers/STM32F4xx_HAL_Driver/Src/stm32f4xx_hal_cortex.o
                                0xb01 (size before relaxing)
 .debug_str     0x00002d84      0x168 ./ZHONX_III/Drivers/STM32F4xx_HAL_Driver/Src/stm32f4xx_hal_dma.o
                                0x62a (size before relaxing)
 .debug_str     0x00002eec      0x179 ./ZHONX_III/Drivers/STM32F4xx_HAL_Driver/Src/stm32f4xx_hal_gpio.o
                                0x520 (size before relaxing)
 .debug_str     0x00003065      0x58f ./ZHONX_III/Drivers/STM32F4xx_HAL_Driver/Src/stm32f4xx_hal_i2c.o
                                0xd06 (size before relaxing)
 .debug_str     0x000035f4      0x1ca ./ZHONX_III/Drivers/STM32F4xx_HAL_Driver/Src/stm32f4xx_hal_rcc.o
                                0x6ec (size before relaxing)
 .debug_str     0x000037be      0xb02 ./ZHONX_III/Drivers/STM32F4xx_HAL_Driver/Src/stm32f4xx_hal_tim.o
                               0x13a0 (size before relaxing)
 .debug_str     0x000042c0      0x477 ./ZHONX_III/Drivers/STM32F4xx_HAL_Driver/Src/stm32f4xx_hal_tim_ex.o
                                0xc84 (size before relaxing)
 .debug_str     0x00004737      0x338 ./ZHONX_III/Drivers/STM32F4xx_HAL_Driver/Src/stm32f4xx_hal_uart.o
                                0xaae (size before relaxing)
 .debug_str     0x00004a6f       0x7e ./ZHONX_III/Drivers/CMSIS/Device/ST/STM32F4xx/Source/Templates/system_stm32f4xx.o
                                0x3e3 (size before relaxing)
 .debug_str     0x00004aed       0x5c ./ZHONX_III/DSP_lib/ControllerFunctions/arm_pid_init_f32.o
                                0x252 (size before relaxing)

.comment        0x00000000       0x70
 .comment       0x00000000       0x70 ./ZHONX_III/TimesBase/TimesBase.o
                                 0x71 (size before relaxing)
 .comment       0x00000000       0x71 ./ZHONX_III/Src/main.o
 .comment       0x00000000       0x71 ./ZHONX_III/Src/stm32f4xx_hal_msp.o
 .comment       0x00000000       0x71 ./ZHONX_III/Src/stm32f4xx_it.o
 .comment       0x00000000       0x71 ./ZHONX_III/Src/syscalls.o
 .comment       0x00000000       0x71 ./ZHONX_III/Src/user_it_callback.o
 .comment       0x00000000       0x71 ./ZHONX_III/Peripherals/Tests/tests.o
 .comment       0x00000000       0x71 ./ZHONX_III/Peripherals/Telemeters/Telemeters.o
 .comment       0x00000000       0x71 ./ZHONX_III/Peripherals/Gyroscope/ADXRS620.o
 .comment       0x00000000       0x71 ./ZHONX_III/Peripherals/Expander/PCF8574.o
 .comment       0x00000000       0x71 ./ZHONX_III/Peripherals/Encoders/IE512.o
 .comment       0x00000000       0x71 ./ZHONX_III/Peripherals/Display/src/smallfonts.o
 .comment       0x00000000       0x71 ./ZHONX_III/Peripherals/Display/src/ssd1306.o
 .comment       0x00000000       0x71 ./ZHONX_III/Enslavements/Straight_Controls/Straight_Controls.o
 .comment       0x00000000       0x71 ./ZHONX_III/Enslavements/PID/PID.o
 .comment       0x00000000       0x71 ./ZHONX_III/Drivers/STM32F4xx_HAL_Driver/Src/stm32f4xx_hal.o
 .comment       0x00000000       0x71 ./ZHONX_III/Drivers/STM32F4xx_HAL_Driver/Src/stm32f4xx_hal_adc.o
 .comment       0x00000000       0x71 ./ZHONX_III/Drivers/STM32F4xx_HAL_Driver/Src/stm32f4xx_hal_cortex.o
 .comment       0x00000000       0x71 ./ZHONX_III/Drivers/STM32F4xx_HAL_Driver/Src/stm32f4xx_hal_dma.o
 .comment       0x00000000       0x71 ./ZHONX_III/Drivers/STM32F4xx_HAL_Driver/Src/stm32f4xx_hal_gpio.o
 .comment       0x00000000       0x71 ./ZHONX_III/Drivers/STM32F4xx_HAL_Driver/Src/stm32f4xx_hal_i2c.o
 .comment       0x00000000       0x71 ./ZHONX_III/Drivers/STM32F4xx_HAL_Driver/Src/stm32f4xx_hal_rcc.o
 .comment       0x00000000       0x71 ./ZHONX_III/Drivers/STM32F4xx_HAL_Driver/Src/stm32f4xx_hal_tim.o
 .comment       0x00000000       0x71 ./ZHONX_III/Drivers/STM32F4xx_HAL_Driver/Src/stm32f4xx_hal_tim_ex.o
 .comment       0x00000000       0x71 ./ZHONX_III/Drivers/STM32F4xx_HAL_Driver/Src/stm32f4xx_hal_uart.o
 .comment       0x00000000       0x71 ./ZHONX_III/Drivers/CMSIS/Device/ST/STM32F4xx/Source/Templates/system_stm32f4xx.o
 .comment       0x00000000       0x71 ./ZHONX_III/DSP_lib/ControllerFunctions/arm_pid_init_f32.o

.debug_frame    0x00000000     0x409c
 .debug_frame   0x00000000       0xa0 ./ZHONX_III/TimesBase/TimesBase.o
 .debug_frame   0x000000a0      0x1bc ./ZHONX_III/Src/main.o
 .debug_frame   0x0000025c      0x190 ./ZHONX_III/Src/stm32f4xx_hal_msp.o
 .debug_frame   0x000003ec      0x10c ./ZHONX_III/Src/stm32f4xx_it.o
 .debug_frame   0x000004f8      0x22c ./ZHONX_III/Src/syscalls.o
 .debug_frame   0x00000724       0x30 ./ZHONX_III/Src/user_it_callback.o
 .debug_frame   0x00000754      0x1a4 ./ZHONX_III/Peripherals/Tests/tests.o
 .debug_frame   0x000008f8       0x50 ./ZHONX_III/Peripherals/Telemeters/Telemeters.o
 .debug_frame   0x00000948       0x94 ./ZHONX_III/Peripherals/Gyroscope/ADXRS620.o
 .debug_frame   0x000009dc       0xcc ./ZHONX_III/Peripherals/Expander/PCF8574.o
 .debug_frame   0x00000aa8       0x60 ./ZHONX_III/Peripherals/Encoders/IE512.o
 .debug_frame   0x00000b08      0x300 ./ZHONX_III/Peripherals/Display/src/ssd1306.o
 .debug_frame   0x00000e08       0x8c ./ZHONX_III/Enslavements/Straight_Controls/Straight_Controls.o
 .debug_frame   0x00000e94       0xa8 ./ZHONX_III/Enslavements/PID/PID.o
 .debug_frame   0x00000f3c      0x220 ./ZHONX_III/Drivers/STM32F4xx_HAL_Driver/Src/stm32f4xx_hal.o
 .debug_frame   0x0000115c      0x314 ./ZHONX_III/Drivers/STM32F4xx_HAL_Driver/Src/stm32f4xx_hal_adc.o
 .debug_frame   0x00001470      0x35c ./ZHONX_III/Drivers/STM32F4xx_HAL_Driver/Src/stm32f4xx_hal_cortex.o
 .debug_frame   0x000017cc      0x13c ./ZHONX_III/Drivers/STM32F4xx_HAL_Driver/Src/stm32f4xx_hal_dma.o
 .debug_frame   0x00001908       0xf4 ./ZHONX_III/Drivers/STM32F4xx_HAL_Driver/Src/stm32f4xx_hal_gpio.o
 .debug_frame   0x000019fc      0x704 ./ZHONX_III/Drivers/STM32F4xx_HAL_Driver/Src/stm32f4xx_hal_i2c.o
 .debug_frame   0x00002100      0x1a0 ./ZHONX_III/Drivers/STM32F4xx_HAL_Driver/Src/stm32f4xx_hal_rcc.o
 .debug_frame   0x000022a0      0xc50 ./ZHONX_III/Drivers/STM32F4xx_HAL_Driver/Src/stm32f4xx_hal_tim.o
 .debug_frame   0x00002ef0      0x480 ./ZHONX_III/Drivers/STM32F4xx_HAL_Driver/Src/stm32f4xx_hal_tim_ex.o
 .debug_frame   0x00003370      0x48c ./ZHONX_III/Drivers/STM32F4xx_HAL_Driver/Src/stm32f4xx_hal_uart.o
 .debug_frame   0x000037fc       0x44 ./ZHONX_III/Drivers/CMSIS/Device/ST/STM32F4xx/Source/Templates/system_stm32f4xx.o
 .debug_frame   0x00003840       0x30 ./ZHONX_III/DSP_lib/ControllerFunctions/arm_pid_init_f32.o
 .debug_frame   0x00003870       0x2c c:/eclipse-arm/gcc-4_8-2014/bin/../lib/gcc/arm-none-eabi/4.8.4/../../../../arm-none-eabi/lib/armv7e-m/fpu\libg.a(lib_a-init.o)
 .debug_frame   0x0000389c       0x2c c:/eclipse-arm/gcc-4_8-2014/bin/../lib/gcc/arm-none-eabi/4.8.4/../../../../arm-none-eabi/lib/armv7e-m/fpu\libg.a(lib_a-memset.o)
 .debug_frame   0x000038c8       0x48 c:/eclipse-arm/gcc-4_8-2014/bin/../lib/gcc/arm-none-eabi/4.8.4/../../../../arm-none-eabi/lib/armv7e-m/fpu\libg.a(lib_a-reent.o)
 .debug_frame   0x00003910       0x64 c:/eclipse-arm/gcc-4_8-2014/bin/../lib/gcc/arm-none-eabi/4.8.4/../../../../arm-none-eabi/lib/armv7e-m/fpu\libg.a(lib_a-sprintf.o)
 .debug_frame   0x00003974       0x20 c:/eclipse-arm/gcc-4_8-2014/bin/../lib/gcc/arm-none-eabi/4.8.4/../../../../arm-none-eabi/lib/armv7e-m/fpu\libg.a(lib_a-strlen.o)
 .debug_frame   0x00003994       0x3c c:/eclipse-arm/gcc-4_8-2014/bin/../lib/gcc/arm-none-eabi/4.8.4/../../../../arm-none-eabi/lib/armv7e-m/fpu\libg.a(lib_a-svfprintf.o)
 .debug_frame   0x000039d0       0x48 c:/eclipse-arm/gcc-4_8-2014/bin/../lib/gcc/arm-none-eabi/4.8.4/../../../../arm-none-eabi/lib/armv7e-m/fpu\libg.a(lib_a-__call_atexit.o)
 .debug_frame   0x00003a18       0x20 c:/eclipse-arm/gcc-4_8-2014/bin/../lib/gcc/arm-none-eabi/4.8.4/../../../../arm-none-eabi/lib/armv7e-m/fpu\libg.a(lib_a-atexit.o)
 .debug_frame   0x00003a38       0x64 c:/eclipse-arm/gcc-4_8-2014/bin/../lib/gcc/arm-none-eabi/4.8.4/../../../../arm-none-eabi/lib/armv7e-m/fpu\libg.a(lib_a-dtoa.o)
 .debug_frame   0x00003a9c       0x2c c:/eclipse-arm/gcc-4_8-2014/bin/../lib/gcc/arm-none-eabi/4.8.4/../../../../arm-none-eabi/lib/armv7e-m/fpu\libg.a(lib_a-fini.o)
 .debug_frame   0x00003ac8       0x50 c:/eclipse-arm/gcc-4_8-2014/bin/../lib/gcc/arm-none-eabi/4.8.4/../../../../arm-none-eabi/lib/armv7e-m/fpu\libg.a(lib_a-freer.o)
 .debug_frame   0x00003b18       0x98 c:/eclipse-arm/gcc-4_8-2014/bin/../lib/gcc/arm-none-eabi/4.8.4/../../../../arm-none-eabi/lib/armv7e-m/fpu\libg.a(lib_a-locale.o)
 .debug_frame   0x00003bb0       0x38 c:/eclipse-arm/gcc-4_8-2014/bin/../lib/gcc/arm-none-eabi/4.8.4/../../../../arm-none-eabi/lib/armv7e-m/fpu\libg.a(lib_a-mallocr.o)
 .debug_frame   0x00003be8       0x2c c:/eclipse-arm/gcc-4_8-2014/bin/../lib/gcc/arm-none-eabi/4.8.4/../../../../arm-none-eabi/lib/armv7e-m/fpu\libg.a(lib_a-memchr-stub.o)
 .debug_frame   0x00003c14       0x30 c:/eclipse-arm/gcc-4_8-2014/bin/../lib/gcc/arm-none-eabi/4.8.4/../../../../arm-none-eabi/lib/armv7e-m/fpu\libg.a(lib_a-mlock.o)
 .debug_frame   0x00003c44      0x22c c:/eclipse-arm/gcc-4_8-2014/bin/../lib/gcc/arm-none-eabi/4.8.4/../../../../arm-none-eabi/lib/armv7e-m/fpu\libg.a(lib_a-mprec.o)
 .debug_frame   0x00003e70       0x28 c:/eclipse-arm/gcc-4_8-2014/bin/../lib/gcc/arm-none-eabi/4.8.4/../../../../arm-none-eabi/lib/armv7e-m/fpu\libg.a(lib_a-s_fpclassify.o)
 .debug_frame   0x00003e98       0x2c c:/eclipse-arm/gcc-4_8-2014/bin/../lib/gcc/arm-none-eabi/4.8.4/../../../../arm-none-eabi/lib/armv7e-m/fpu\libg.a(lib_a-sbrkr.o)
 .debug_frame   0x00003ec4       0x64 c:/eclipse-arm/gcc-4_8-2014/bin/../lib/gcc/arm-none-eabi/4.8.4/../../../../arm-none-eabi/lib/armv7e-m/fpu\libg.a(lib_a-svfiprintf.o)
 .debug_frame   0x00003f28       0x30 c:/eclipse-arm/gcc-4_8-2014/bin/../lib/gcc/arm-none-eabi/4.8.4/../../../../arm-none-eabi/lib/armv7e-m/fpu\libg.a(lib_a-__atexit.o)
 .debug_frame   0x00003f58       0x28 c:/eclipse-arm/gcc-4_8-2014/bin/../lib/gcc/arm-none-eabi/4.8.4/../../../../arm-none-eabi/lib/armv7e-m/fpu\libg.a(lib_a-callocr.o)
 .debug_frame   0x00003f80       0x2c c:/eclipse-arm/gcc-4_8-2014/bin/../lib/gcc/arm-none-eabi/4.8.4/../../../../arm-none-eabi/lib/armv7e-m/fpu\libg.a(lib_a-memmove.o)
 .debug_frame   0x00003fac       0x38 c:/eclipse-arm/gcc-4_8-2014/bin/../lib/gcc/arm-none-eabi/4.8.4/../../../../arm-none-eabi/lib/armv7e-m/fpu\libg.a(lib_a-reallocr.o)
 .debug_frame   0x00003fe4       0x50 c:/eclipse-arm/gcc-4_8-2014/bin/../lib/gcc/arm-none-eabi/4.8.4/armv7e-m/fpu\libgcc.a(bpabi.o)
 .debug_frame   0x00004034       0x34 c:/eclipse-arm/gcc-4_8-2014/bin/../lib/gcc/arm-none-eabi/4.8.4/armv7e-m/fpu\libgcc.a(_divdi3.o)
 .debug_frame   0x00004068       0x34 c:/eclipse-arm/gcc-4_8-2014/bin/../lib/gcc/arm-none-eabi/4.8.4/armv7e-m/fpu\libgcc.a(_udivdi3.o)

Cross Reference Table

Symbol                                            File
ADC_IRQHandler                                    ./ZHONX_III/Drivers/CMSIS/Device/ST/STM32F4xx/Source/Templates/gcc/startup_stm32f405xx.o
ADXRS620_Calibrate                                ./ZHONX_III/Peripherals/Gyroscope/ADXRS620.o
ADXRS620_IT                                       ./ZHONX_III/Peripherals/Gyroscope/ADXRS620.o
                                                  ./ZHONX_III/TimesBase/TimesBase.o
ADXRS620_Init                                     ./ZHONX_III/Peripherals/Gyroscope/ADXRS620.o
                                                  ./ZHONX_III/Peripherals/Tests/tests.o
                                                  ./ZHONX_III/Src/main.o
AHBPrescTable                                     ./ZHONX_III/Drivers/CMSIS/Device/ST/STM32F4xx/Source/Templates/system_stm32f4xx.o
APBAHBPrescTable                                  ./ZHONX_III/Drivers/STM32F4xx_HAL_Driver/Src/stm32f4xx_hal_rcc.o
Alfa                                              ./ZHONX_III/Peripherals/Gyroscope/ADXRS620.o
Beta                                              ./ZHONX_III/Peripherals/Gyroscope/ADXRS620.o
Blink                                             ./ZHONX_III/TimesBase/TimesBase.o
Bluetooth_Init                                    ./ZHONX_III/Peripherals/Bluetooth/Bluetooth.o
BusFault_Handler                                  ./ZHONX_III/Drivers/CMSIS/Device/ST/STM32F4xx/Source/Templates/gcc/startup_stm32f405xx.o
CAN1_RX0_IRQHandler                               ./ZHONX_III/Drivers/CMSIS/Device/ST/STM32F4xx/Source/Templates/gcc/startup_stm32f405xx.o
CAN1_RX1_IRQHandler                               ./ZHONX_III/Drivers/CMSIS/Device/ST/STM32F4xx/Source/Templates/gcc/startup_stm32f405xx.o
CAN1_SCE_IRQHandler                               ./ZHONX_III/Drivers/CMSIS/Device/ST/STM32F4xx/Source/Templates/gcc/startup_stm32f405xx.o
CAN1_TX_IRQHandler                                ./ZHONX_III/Drivers/CMSIS/Device/ST/STM32F4xx/Source/Templates/gcc/startup_stm32f405xx.o
CAN2_RX0_IRQHandler                               ./ZHONX_III/Drivers/CMSIS/Device/ST/STM32F4xx/Source/Templates/gcc/startup_stm32f405xx.o
CAN2_RX1_IRQHandler                               ./ZHONX_III/Drivers/CMSIS/Device/ST/STM32F4xx/Source/Templates/gcc/startup_stm32f405xx.o
CAN2_SCE_IRQHandler                               ./ZHONX_III/Drivers/CMSIS/Device/ST/STM32F4xx/Source/Templates/gcc/startup_stm32f405xx.o
CAN2_TX_IRQHandler                                ./ZHONX_III/Drivers/CMSIS/Device/ST/STM32F4xx/Source/Templates/gcc/startup_stm32f405xx.o
DMA1_Stream0_IRQHandler                           ./ZHONX_III/Drivers/CMSIS/Device/ST/STM32F4xx/Source/Templates/gcc/startup_stm32f405xx.o
DMA1_Stream1_IRQHandler                           ./ZHONX_III/Drivers/CMSIS/Device/ST/STM32F4xx/Source/Templates/gcc/startup_stm32f405xx.o
DMA1_Stream2_IRQHandler                           ./ZHONX_III/Drivers/CMSIS/Device/ST/STM32F4xx/Source/Templates/gcc/startup_stm32f405xx.o
DMA1_Stream3_IRQHandler                           ./ZHONX_III/Drivers/CMSIS/Device/ST/STM32F4xx/Source/Templates/gcc/startup_stm32f405xx.o
DMA1_Stream4_IRQHandler                           ./ZHONX_III/Drivers/CMSIS/Device/ST/STM32F4xx/Source/Templates/gcc/startup_stm32f405xx.o
DMA1_Stream5_IRQHandler                           ./ZHONX_III/Src/stm32f4xx_it.o
DMA1_Stream6_IRQHandler                           ./ZHONX_III/Src/stm32f4xx_it.o
DMA1_Stream7_IRQHandler                           ./ZHONX_III/Drivers/CMSIS/Device/ST/STM32F4xx/Source/Templates/gcc/startup_stm32f405xx.o
DMA2_Stream0_IRQHandler                           ./ZHONX_III/Drivers/CMSIS/Device/ST/STM32F4xx/Source/Templates/gcc/startup_stm32f405xx.o
DMA2_Stream1_IRQHandler                           ./ZHONX_III/Drivers/CMSIS/Device/ST/STM32F4xx/Source/Templates/gcc/startup_stm32f405xx.o
DMA2_Stream2_IRQHandler                           ./ZHONX_III/Drivers/CMSIS/Device/ST/STM32F4xx/Source/Templates/gcc/startup_stm32f405xx.o
DMA2_Stream3_IRQHandler                           ./ZHONX_III/Drivers/CMSIS/Device/ST/STM32F4xx/Source/Templates/gcc/startup_stm32f405xx.o
DMA2_Stream4_IRQHandler                           ./ZHONX_III/Drivers/CMSIS/Device/ST/STM32F4xx/Source/Templates/gcc/startup_stm32f405xx.o
DMA2_Stream5_IRQHandler                           ./ZHONX_III/Drivers/CMSIS/Device/ST/STM32F4xx/Source/Templates/gcc/startup_stm32f405xx.o
DMA2_Stream6_IRQHandler                           ./ZHONX_III/Drivers/CMSIS/Device/ST/STM32F4xx/Source/Templates/gcc/startup_stm32f405xx.o
DMA2_Stream7_IRQHandler                           ./ZHONX_III/Drivers/CMSIS/Device/ST/STM32F4xx/Source/Templates/gcc/startup_stm32f405xx.o
DMA_ADC_Gyro_Rate                                 ./ZHONX_III/Peripherals/Gyroscope/ADXRS620.o
DebugMon_Handler                                  ./ZHONX_III/Drivers/CMSIS/Device/ST/STM32F4xx/Source/Templates/gcc/startup_stm32f405xx.o
Debug_ADXRS620                                    ./ZHONX_III/Peripherals/Gyroscope/ADXRS620.o
                                                  ./ZHONX_III/Src/main.o
Debug_Straight_Control                            ./ZHONX_III/Enslavements/Straight_Controls/Straight_Controls.o
Default_Handler                                   ./ZHONX_III/Drivers/CMSIS/Device/ST/STM32F4xx/Source/Templates/gcc/startup_stm32f405xx.o
EXTI0_IRQHandler                                  ./ZHONX_III/Drivers/CMSIS/Device/ST/STM32F4xx/Source/Templates/gcc/startup_stm32f405xx.o
EXTI15_10_IRQHandler                              ./ZHONX_III/Drivers/CMSIS/Device/ST/STM32F4xx/Source/Templates/gcc/startup_stm32f405xx.o
EXTI1_IRQHandler                                  ./ZHONX_III/Drivers/CMSIS/Device/ST/STM32F4xx/Source/Templates/gcc/startup_stm32f405xx.o
EXTI2_IRQHandler                                  ./ZHONX_III/Drivers/CMSIS/Device/ST/STM32F4xx/Source/Templates/gcc/startup_stm32f405xx.o
EXTI3_IRQHandler                                  ./ZHONX_III/Drivers/CMSIS/Device/ST/STM32F4xx/Source/Templates/gcc/startup_stm32f405xx.o
EXTI4_IRQHandler                                  ./ZHONX_III/Drivers/CMSIS/Device/ST/STM32F4xx/Source/Templates/gcc/startup_stm32f405xx.o
EXTI9_5_IRQHandler                                ./ZHONX_III/Drivers/CMSIS/Device/ST/STM32F4xx/Source/Templates/gcc/startup_stm32f405xx.o
Encoders_Init                                     ./ZHONX_III/Peripherals/Encoders/IE512.o
                                                  ./ZHONX_III/Peripherals/Tests/tests.o
ExpanderGetbit                                    ./ZHONX_III/Peripherals/Expander/PCF8574.o
ExpanderReset                                     ./ZHONX_III/Peripherals/Expander/PCF8574.o
                                                  ./ZHONX_III/Peripherals/Tests/tests.o
ExpanderSetbit                                    ./ZHONX_III/Peripherals/Expander/PCF8574.o
                                                  ./ZHONX_III/Peripherals/Display/src/ssd1306.o
                                                  ./ZHONX_III/Peripherals/Tests/tests.o
FLASH_Erase_Sector                                ./ZHONX_III/Drivers/STM32F4xx_HAL_Driver/Src/stm32f4xx_hal_flash_ex.o
                                                  ./ZHONX_III/Drivers/STM32F4xx_HAL_Driver/Src/stm32f4xx_hal_flash.o
FLASH_IRQHandler                                  ./ZHONX_III/Drivers/CMSIS/Device/ST/STM32F4xx/Source/Templates/gcc/startup_stm32f405xx.o
FLASH_WaitForLastOperation                        ./ZHONX_III/Drivers/STM32F4xx_HAL_Driver/Src/stm32f4xx_hal_flash.o
                                                  ./ZHONX_III/Drivers/STM32F4xx_HAL_Driver/Src/stm32f4xx_hal_flash_ex.o
FPU_IRQHandler                                    ./ZHONX_III/Drivers/CMSIS/Device/ST/STM32F4xx/Source/Templates/gcc/startup_stm32f405xx.o
FSMC_IRQHandler                                   ./ZHONX_III/Drivers/CMSIS/Device/ST/STM32F4xx/Source/Templates/gcc/startup_stm32f405xx.o
Font_3x6                                          ./ZHONX_III/Peripherals/Display/src/smallfonts.o
                                                  ./ZHONX_III/Peripherals/Tests/tests.o
Font_5x8                                          ./ZHONX_III/Peripherals/Display/src/smallfonts.o
                                                  ./ZHONX_III/Enslavements/Straight_Controls/Straight_Controls.o
                                                  ./ZHONX_III/Peripherals/Gyroscope/ADXRS620.o
                                                  ./ZHONX_III/Peripherals/Tests/tests.o
Font_7x8                                          ./ZHONX_III/Peripherals/Display/src/smallfonts.o
Font_8x8                                          ./ZHONX_III/Peripherals/Display/src/smallfonts.o
                                                  ./ZHONX_III/Peripherals/Tests/tests.o
Font_8x8Thin                                      ./ZHONX_III/Peripherals/Display/src/smallfonts.o
GPIO_InitStruct                                   ./ZHONX_III/Enslavements/PID/PID.o
                                                  ./ZHONX_III/Enslavements/Straight_Controls/Straight_Controls.o
                                                  ./ZHONX_III/Peripherals/Gyroscope/ADXRS620.o
                                                  ./ZHONX_III/Peripherals/Telemeters/Telemeters.o
                                                  ./ZHONX_III/Peripherals/Tests/tests.o
                                                  ./ZHONX_III/TimesBase/TimesBase.o
HAL_ADCEx_InjectedConfigChannel                   ./ZHONX_III/Drivers/STM32F4xx_HAL_Driver/Src/stm32f4xx_hal_adc_ex.o
HAL_ADCEx_InjectedConvCpltCallback                ./ZHONX_III/Drivers/STM32F4xx_HAL_Driver/Src/stm32f4xx_hal_adc_ex.o
                                                  ./ZHONX_III/Drivers/STM32F4xx_HAL_Driver/Src/stm32f4xx_hal_adc.o
HAL_ADCEx_InjectedGetValue                        ./ZHONX_III/Drivers/STM32F4xx_HAL_Driver/Src/stm32f4xx_hal_adc_ex.o
HAL_ADCEx_InjectedPollForConversion               ./ZHONX_III/Drivers/STM32F4xx_HAL_Driver/Src/stm32f4xx_hal_adc_ex.o
HAL_ADCEx_InjectedStart                           ./ZHONX_III/Drivers/STM32F4xx_HAL_Driver/Src/stm32f4xx_hal_adc_ex.o
HAL_ADCEx_InjectedStart_IT                        ./ZHONX_III/Drivers/STM32F4xx_HAL_Driver/Src/stm32f4xx_hal_adc_ex.o
HAL_ADCEx_InjectedStop                            ./ZHONX_III/Drivers/STM32F4xx_HAL_Driver/Src/stm32f4xx_hal_adc_ex.o
HAL_ADCEx_InjectedStop_IT                         ./ZHONX_III/Drivers/STM32F4xx_HAL_Driver/Src/stm32f4xx_hal_adc_ex.o
HAL_ADCEx_MultiModeConfigChannel                  ./ZHONX_III/Drivers/STM32F4xx_HAL_Driver/Src/stm32f4xx_hal_adc_ex.o
HAL_ADCEx_MultiModeGetValue                       ./ZHONX_III/Drivers/STM32F4xx_HAL_Driver/Src/stm32f4xx_hal_adc_ex.o
HAL_ADCEx_MultiModeStart_DMA                      ./ZHONX_III/Drivers/STM32F4xx_HAL_Driver/Src/stm32f4xx_hal_adc_ex.o
HAL_ADCEx_MultiModeStop_DMA                       ./ZHONX_III/Drivers/STM32F4xx_HAL_Driver/Src/stm32f4xx_hal_adc_ex.o
HAL_ADC_AnalogWDGConfig                           ./ZHONX_III/Drivers/STM32F4xx_HAL_Driver/Src/stm32f4xx_hal_adc.o
HAL_ADC_ConfigChannel                             ./ZHONX_III/Drivers/STM32F4xx_HAL_Driver/Src/stm32f4xx_hal_adc.o
                                                  ./ZHONX_III/Peripherals/Gyroscope/ADXRS620.o
                                                  ./ZHONX_III/Peripherals/Telemeters/Telemeters.o
                                                  ./ZHONX_III/Peripherals/Tests/tests.o
                                                  ./ZHONX_III/Src/main.o
HAL_ADC_ConvCpltCallback                          ./ZHONX_III/Drivers/STM32F4xx_HAL_Driver/Src/stm32f4xx_hal_adc.o
                                                  ./ZHONX_III/Drivers/STM32F4xx_HAL_Driver/Src/stm32f4xx_hal_adc_ex.o
HAL_ADC_ConvHalfCpltCallback                      ./ZHONX_III/Drivers/STM32F4xx_HAL_Driver/Src/stm32f4xx_hal_adc.o
                                                  ./ZHONX_III/Drivers/STM32F4xx_HAL_Driver/Src/stm32f4xx_hal_adc_ex.o
HAL_ADC_DeInit                                    ./ZHONX_III/Drivers/STM32F4xx_HAL_Driver/Src/stm32f4xx_hal_adc.o
HAL_ADC_ErrorCallback                             ./ZHONX_III/Drivers/STM32F4xx_HAL_Driver/Src/stm32f4xx_hal_adc.o
                                                  ./ZHONX_III/Drivers/STM32F4xx_HAL_Driver/Src/stm32f4xx_hal_adc_ex.o
HAL_ADC_GetError                                  ./ZHONX_III/Drivers/STM32F4xx_HAL_Driver/Src/stm32f4xx_hal_adc.o
HAL_ADC_GetState                                  ./ZHONX_III/Drivers/STM32F4xx_HAL_Driver/Src/stm32f4xx_hal_adc.o
HAL_ADC_GetValue                                  ./ZHONX_III/Drivers/STM32F4xx_HAL_Driver/Src/stm32f4xx_hal_adc.o
HAL_ADC_IRQHandler                                ./ZHONX_III/Drivers/STM32F4xx_HAL_Driver/Src/stm32f4xx_hal_adc.o
HAL_ADC_Init                                      ./ZHONX_III/Drivers/STM32F4xx_HAL_Driver/Src/stm32f4xx_hal_adc.o
                                                  ./ZHONX_III/Src/main.o
HAL_ADC_LevelOutOfWindowCallback                  ./ZHONX_III/Drivers/STM32F4xx_HAL_Driver/Src/stm32f4xx_hal_adc.o
HAL_ADC_MspDeInit                                 ./ZHONX_III/Src/stm32f4xx_hal_msp.o
HAL_ADC_MspInit                                   ./ZHONX_III/Src/stm32f4xx_hal_msp.o
HAL_ADC_PollForConversion                         ./ZHONX_III/Drivers/STM32F4xx_HAL_Driver/Src/stm32f4xx_hal_adc.o
HAL_ADC_PollForEvent                              ./ZHONX_III/Drivers/STM32F4xx_HAL_Driver/Src/stm32f4xx_hal_adc.o
HAL_ADC_Start                                     ./ZHONX_III/Drivers/STM32F4xx_HAL_Driver/Src/stm32f4xx_hal_adc.o
                                                  ./ZHONX_III/Peripherals/Gyroscope/ADXRS620.o
                                                  ./ZHONX_III/Peripherals/Telemeters/Telemeters.o
HAL_ADC_Start_DMA                                 ./ZHONX_III/Drivers/STM32F4xx_HAL_Driver/Src/stm32f4xx_hal_adc.o
                                                  ./ZHONX_III/Peripherals/Gyroscope/ADXRS620.o
                                                  ./ZHONX_III/Peripherals/Telemeters/Telemeters.o
                                                  ./ZHONX_III/Peripherals/Tests/tests.o
HAL_ADC_Start_IT                                  ./ZHONX_III/Drivers/STM32F4xx_HAL_Driver/Src/stm32f4xx_hal_adc.o
HAL_ADC_Stop                                      ./ZHONX_III/Drivers/STM32F4xx_HAL_Driver/Src/stm32f4xx_hal_adc.o
HAL_ADC_Stop_DMA                                  ./ZHONX_III/Drivers/STM32F4xx_HAL_Driver/Src/stm32f4xx_hal_adc.o
                                                  ./ZHONX_III/Peripherals/Gyroscope/ADXRS620.o
                                                  ./ZHONX_III/Peripherals/Telemeters/Telemeters.o
                                                  ./ZHONX_III/Peripherals/Tests/tests.o
HAL_ADC_Stop_IT                                   ./ZHONX_III/Drivers/STM32F4xx_HAL_Driver/Src/stm32f4xx_hal_adc.o
HAL_DMAEx_ChangeMemory                            ./ZHONX_III/Drivers/STM32F4xx_HAL_Driver/Src/stm32f4xx_hal_dma_ex.o
HAL_DMAEx_MultiBufferStart                        ./ZHONX_III/Drivers/STM32F4xx_HAL_Driver/Src/stm32f4xx_hal_dma_ex.o
HAL_DMAEx_MultiBufferStart_IT                     ./ZHONX_III/Drivers/STM32F4xx_HAL_Driver/Src/stm32f4xx_hal_dma_ex.o
HAL_DMA_Abort                                     ./ZHONX_III/Drivers/STM32F4xx_HAL_Driver/Src/stm32f4xx_hal_dma.o
                                                  ./ZHONX_III/Drivers/STM32F4xx_HAL_Driver/Src/stm32f4xx_hal_uart.o
                                                  ./ZHONX_III/Drivers/STM32F4xx_HAL_Driver/Src/stm32f4xx_hal_adc_ex.o
                                                  ./ZHONX_III/Drivers/STM32F4xx_HAL_Driver/Src/stm32f4xx_hal_adc.o
HAL_DMA_DeInit                                    ./ZHONX_III/Drivers/STM32F4xx_HAL_Driver/Src/stm32f4xx_hal_dma.o
                                                  ./ZHONX_III/Src/stm32f4xx_hal_msp.o
HAL_DMA_GetError                                  ./ZHONX_III/Drivers/STM32F4xx_HAL_Driver/Src/stm32f4xx_hal_dma.o
HAL_DMA_GetState                                  ./ZHONX_III/Drivers/STM32F4xx_HAL_Driver/Src/stm32f4xx_hal_dma.o
HAL_DMA_IRQHandler                                ./ZHONX_III/Drivers/STM32F4xx_HAL_Driver/Src/stm32f4xx_hal_dma.o
                                                  ./ZHONX_III/Src/stm32f4xx_it.o
HAL_DMA_Init                                      ./ZHONX_III/Drivers/STM32F4xx_HAL_Driver/Src/stm32f4xx_hal_dma.o
                                                  ./ZHONX_III/Src/stm32f4xx_hal_msp.o
HAL_DMA_PollForTransfer                           ./ZHONX_III/Drivers/STM32F4xx_HAL_Driver/Src/stm32f4xx_hal_dma.o
HAL_DMA_Start                                     ./ZHONX_III/Drivers/STM32F4xx_HAL_Driver/Src/stm32f4xx_hal_dma.o
HAL_DMA_Start_IT                                  ./ZHONX_III/Drivers/STM32F4xx_HAL_Driver/Src/stm32f4xx_hal_dma.o
                                                  ./ZHONX_III/Drivers/STM32F4xx_HAL_Driver/Src/stm32f4xx_hal_uart.o
                                                  ./ZHONX_III/Drivers/STM32F4xx_HAL_Driver/Src/stm32f4xx_hal_tim_ex.o
                                                  ./ZHONX_III/Drivers/STM32F4xx_HAL_Driver/Src/stm32f4xx_hal_tim.o
                                                  ./ZHONX_III/Drivers/STM32F4xx_HAL_Driver/Src/stm32f4xx_hal_i2c.o
                                                  ./ZHONX_III/Drivers/STM32F4xx_HAL_Driver/Src/stm32f4xx_hal_adc_ex.o
                                                  ./ZHONX_III/Drivers/STM32F4xx_HAL_Driver/Src/stm32f4xx_hal_adc.o
HAL_DeInit                                        ./ZHONX_III/Drivers/STM32F4xx_HAL_Driver/Src/stm32f4xx_hal.o
HAL_Delay                                         ./ZHONX_III/Drivers/STM32F4xx_HAL_Driver/Src/stm32f4xx_hal.o
                                                  ./ZHONX_III/Enslavements/Straight_Controls/Straight_Controls.o
                                                  ./ZHONX_III/Peripherals/Display/src/ssd1306.o
                                                  ./ZHONX_III/Peripherals/Gyroscope/ADXRS620.o
                                                  ./ZHONX_III/Peripherals/Tests/tests.o
HAL_DisableCompensationCell                       ./ZHONX_III/Drivers/STM32F4xx_HAL_Driver/Src/stm32f4xx_hal.o
HAL_DisableDBGSleepMode                           ./ZHONX_III/Drivers/STM32F4xx_HAL_Driver/Src/stm32f4xx_hal.o
HAL_DisableDBGStandbyMode                         ./ZHONX_III/Drivers/STM32F4xx_HAL_Driver/Src/stm32f4xx_hal.o
HAL_DisableDBGStopMode                            ./ZHONX_III/Drivers/STM32F4xx_HAL_Driver/Src/stm32f4xx_hal.o
HAL_EnableCompensationCell                        ./ZHONX_III/Drivers/STM32F4xx_HAL_Driver/Src/stm32f4xx_hal.o
HAL_EnableDBGSleepMode                            ./ZHONX_III/Drivers/STM32F4xx_HAL_Driver/Src/stm32f4xx_hal.o
HAL_EnableDBGStandbyMode                          ./ZHONX_III/Drivers/STM32F4xx_HAL_Driver/Src/stm32f4xx_hal.o
HAL_EnableDBGStopMode                             ./ZHONX_III/Drivers/STM32F4xx_HAL_Driver/Src/stm32f4xx_hal.o
HAL_FLASHEx_Erase                                 ./ZHONX_III/Drivers/STM32F4xx_HAL_Driver/Src/stm32f4xx_hal_flash_ex.o
HAL_FLASHEx_Erase_IT                              ./ZHONX_III/Drivers/STM32F4xx_HAL_Driver/Src/stm32f4xx_hal_flash_ex.o
HAL_FLASHEx_OBGetConfig                           ./ZHONX_III/Drivers/STM32F4xx_HAL_Driver/Src/stm32f4xx_hal_flash_ex.o
HAL_FLASHEx_OBProgram                             ./ZHONX_III/Drivers/STM32F4xx_HAL_Driver/Src/stm32f4xx_hal_flash_ex.o
HAL_FLASH_EndOfOperationCallback                  ./ZHONX_III/Drivers/STM32F4xx_HAL_Driver/Src/stm32f4xx_hal_flash.o
HAL_FLASH_GetError                                ./ZHONX_III/Drivers/STM32F4xx_HAL_Driver/Src/stm32f4xx_hal_flash.o
HAL_FLASH_IRQHandler                              ./ZHONX_III/Drivers/STM32F4xx_HAL_Driver/Src/stm32f4xx_hal_flash.o
HAL_FLASH_Lock                                    ./ZHONX_III/Drivers/STM32F4xx_HAL_Driver/Src/stm32f4xx_hal_flash.o
HAL_FLASH_OB_Launch                               ./ZHONX_III/Drivers/STM32F4xx_HAL_Driver/Src/stm32f4xx_hal_flash.o
HAL_FLASH_OB_Lock                                 ./ZHONX_III/Drivers/STM32F4xx_HAL_Driver/Src/stm32f4xx_hal_flash.o
HAL_FLASH_OB_Unlock                               ./ZHONX_III/Drivers/STM32F4xx_HAL_Driver/Src/stm32f4xx_hal_flash.o
HAL_FLASH_OperationErrorCallback                  ./ZHONX_III/Drivers/STM32F4xx_HAL_Driver/Src/stm32f4xx_hal_flash.o
HAL_FLASH_Program                                 ./ZHONX_III/Drivers/STM32F4xx_HAL_Driver/Src/stm32f4xx_hal_flash.o
HAL_FLASH_Program_IT                              ./ZHONX_III/Drivers/STM32F4xx_HAL_Driver/Src/stm32f4xx_hal_flash.o
HAL_FLASH_Unlock                                  ./ZHONX_III/Drivers/STM32F4xx_HAL_Driver/Src/stm32f4xx_hal_flash.o
HAL_GPIO_DeInit                                   ./ZHONX_III/Drivers/STM32F4xx_HAL_Driver/Src/stm32f4xx_hal_gpio.o
                                                  ./ZHONX_III/Src/stm32f4xx_hal_msp.o
HAL_GPIO_EXTI_Callback                            ./ZHONX_III/Drivers/STM32F4xx_HAL_Driver/Src/stm32f4xx_hal_gpio.o
HAL_GPIO_EXTI_IRQHandler                          ./ZHONX_III/Drivers/STM32F4xx_HAL_Driver/Src/stm32f4xx_hal_gpio.o
HAL_GPIO_Init                                     ./ZHONX_III/Drivers/STM32F4xx_HAL_Driver/Src/stm32f4xx_hal_gpio.o
                                                  ./ZHONX_III/Drivers/STM32F4xx_HAL_Driver/Src/stm32f4xx_hal_rcc.o
                                                  ./ZHONX_III/Peripherals/Tests/tests.o
                                                  ./ZHONX_III/Src/stm32f4xx_hal_msp.o
                                                  ./ZHONX_III/Src/main.o
                                                  ./ZHONX_III/TimesBase/TimesBase.o
HAL_GPIO_LockPin                                  ./ZHONX_III/Drivers/STM32F4xx_HAL_Driver/Src/stm32f4xx_hal_gpio.o
HAL_GPIO_ReadPin                                  ./ZHONX_III/Drivers/STM32F4xx_HAL_Driver/Src/stm32f4xx_hal_gpio.o
HAL_GPIO_TogglePin                                ./ZHONX_III/Drivers/STM32F4xx_HAL_Driver/Src/stm32f4xx_hal_gpio.o
HAL_GPIO_WritePin                                 ./ZHONX_III/Drivers/STM32F4xx_HAL_Driver/Src/stm32f4xx_hal_gpio.o
                                                  ./ZHONX_III/Enslavements/Straight_Controls/Straight_Controls.o
                                                  ./ZHONX_III/Peripherals/Display/src/ssd1306.o
                                                  ./ZHONX_III/Peripherals/Expander/PCF8574.o
                                                  ./ZHONX_III/Peripherals/Telemeters/Telemeters.o
                                                  ./ZHONX_III/Peripherals/Tests/tests.o
                                                  ./ZHONX_III/Src/main.o
                                                  ./ZHONX_III/TimesBase/TimesBase.o
HAL_GetDEVID                                      ./ZHONX_III/Drivers/STM32F4xx_HAL_Driver/Src/stm32f4xx_hal.o
HAL_GetHalVersion                                 ./ZHONX_III/Drivers/STM32F4xx_HAL_Driver/Src/stm32f4xx_hal.o
HAL_GetREVID                                      ./ZHONX_III/Drivers/STM32F4xx_HAL_Driver/Src/stm32f4xx_hal.o
HAL_GetTick                                       ./ZHONX_III/Drivers/STM32F4xx_HAL_Driver/Src/stm32f4xx_hal.o
                                                  ./ZHONX_III/Drivers/STM32F4xx_HAL_Driver/Src/stm32f4xx_hal_uart.o
                                                  ./ZHONX_III/Drivers/STM32F4xx_HAL_Driver/Src/stm32f4xx_hal_rcc_ex.o
                                                  ./ZHONX_III/Drivers/STM32F4xx_HAL_Driver/Src/stm32f4xx_hal_rcc.o
                                                  ./ZHONX_III/Drivers/STM32F4xx_HAL_Driver/Src/stm32f4xx_hal_pwr_ex.o
                                                  ./ZHONX_III/Drivers/STM32F4xx_HAL_Driver/Src/stm32f4xx_hal_i2c.o
                                                  ./ZHONX_III/Drivers/STM32F4xx_HAL_Driver/Src/stm32f4xx_hal_flash.o
                                                  ./ZHONX_III/Drivers/STM32F4xx_HAL_Driver/Src/stm32f4xx_hal_dma.o
                                                  ./ZHONX_III/Drivers/STM32F4xx_HAL_Driver/Src/stm32f4xx_hal_adc_ex.o
                                                  ./ZHONX_III/Drivers/STM32F4xx_HAL_Driver/Src/stm32f4xx_hal_adc.o
HAL_HalfDuplex_EnableReceiver                     ./ZHONX_III/Drivers/STM32F4xx_HAL_Driver/Src/stm32f4xx_hal_uart.o
HAL_HalfDuplex_EnableTransmitter                  ./ZHONX_III/Drivers/STM32F4xx_HAL_Driver/Src/stm32f4xx_hal_uart.o
HAL_HalfDuplex_Init                               ./ZHONX_III/Drivers/STM32F4xx_HAL_Driver/Src/stm32f4xx_hal_uart.o
HAL_I2C_DeInit                                    ./ZHONX_III/Drivers/STM32F4xx_HAL_Driver/Src/stm32f4xx_hal_i2c.o
HAL_I2C_ER_IRQHandler                             ./ZHONX_III/Drivers/STM32F4xx_HAL_Driver/Src/stm32f4xx_hal_i2c.o
                                                  ./ZHONX_III/Src/stm32f4xx_it.o
HAL_I2C_EV_IRQHandler                             ./ZHONX_III/Drivers/STM32F4xx_HAL_Driver/Src/stm32f4xx_hal_i2c.o
                                                  ./ZHONX_III/Src/stm32f4xx_it.o
HAL_I2C_ErrorCallback                             ./ZHONX_III/Drivers/STM32F4xx_HAL_Driver/Src/stm32f4xx_hal_i2c.o
HAL_I2C_GetError                                  ./ZHONX_III/Drivers/STM32F4xx_HAL_Driver/Src/stm32f4xx_hal_i2c.o
                                                  ./ZHONX_III/Peripherals/Tests/tests.o
HAL_I2C_GetState                                  ./ZHONX_III/Drivers/STM32F4xx_HAL_Driver/Src/stm32f4xx_hal_i2c.o
                                                  ./ZHONX_III/Peripherals/Expander/PCF8574.o
HAL_I2C_Init                                      ./ZHONX_III/Drivers/STM32F4xx_HAL_Driver/Src/stm32f4xx_hal_i2c.o
                                                  ./ZHONX_III/Src/main.o
HAL_I2C_IsDeviceReady                             ./ZHONX_III/Drivers/STM32F4xx_HAL_Driver/Src/stm32f4xx_hal_i2c.o
HAL_I2C_MasterRxCpltCallback                      ./ZHONX_III/Drivers/STM32F4xx_HAL_Driver/Src/stm32f4xx_hal_i2c.o
HAL_I2C_MasterTxCpltCallback                      ./ZHONX_III/Drivers/STM32F4xx_HAL_Driver/Src/stm32f4xx_hal_i2c.o
HAL_I2C_Master_Receive                            ./ZHONX_III/Drivers/STM32F4xx_HAL_Driver/Src/stm32f4xx_hal_i2c.o
                                                  ./ZHONX_III/Peripherals/Tests/tests.o
HAL_I2C_Master_Receive_DMA                        ./ZHONX_III/Drivers/STM32F4xx_HAL_Driver/Src/stm32f4xx_hal_i2c.o
                                                  ./ZHONX_III/Peripherals/Expander/PCF8574.o
HAL_I2C_Master_Receive_IT                         ./ZHONX_III/Drivers/STM32F4xx_HAL_Driver/Src/stm32f4xx_hal_i2c.o
HAL_I2C_Master_Transmit                           ./ZHONX_III/Drivers/STM32F4xx_HAL_Driver/Src/stm32f4xx_hal_i2c.o
                                                  ./ZHONX_III/Peripherals/Tests/tests.o
HAL_I2C_Master_Transmit_DMA                       ./ZHONX_III/Drivers/STM32F4xx_HAL_Driver/Src/stm32f4xx_hal_i2c.o
                                                  ./ZHONX_III/Peripherals/Display/src/ssd1306.o
                                                  ./ZHONX_III/Peripherals/Expander/PCF8574.o
HAL_I2C_Master_Transmit_IT                        ./ZHONX_III/Drivers/STM32F4xx_HAL_Driver/Src/stm32f4xx_hal_i2c.o
HAL_I2C_MemRxCpltCallback                         ./ZHONX_III/Drivers/STM32F4xx_HAL_Driver/Src/stm32f4xx_hal_i2c.o
HAL_I2C_MemTxCpltCallback                         ./ZHONX_III/Drivers/STM32F4xx_HAL_Driver/Src/stm32f4xx_hal_i2c.o
HAL_I2C_Mem_Read                                  ./ZHONX_III/Drivers/STM32F4xx_HAL_Driver/Src/stm32f4xx_hal_i2c.o
HAL_I2C_Mem_Read_DMA                              ./ZHONX_III/Drivers/STM32F4xx_HAL_Driver/Src/stm32f4xx_hal_i2c.o
HAL_I2C_Mem_Read_IT                               ./ZHONX_III/Drivers/STM32F4xx_HAL_Driver/Src/stm32f4xx_hal_i2c.o
HAL_I2C_Mem_Write                                 ./ZHONX_III/Drivers/STM32F4xx_HAL_Driver/Src/stm32f4xx_hal_i2c.o
HAL_I2C_Mem_Write_DMA                             ./ZHONX_III/Drivers/STM32F4xx_HAL_Driver/Src/stm32f4xx_hal_i2c.o
HAL_I2C_Mem_Write_IT                              ./ZHONX_III/Drivers/STM32F4xx_HAL_Driver/Src/stm32f4xx_hal_i2c.o
HAL_I2C_MspDeInit                                 ./ZHONX_III/Src/stm32f4xx_hal_msp.o
HAL_I2C_MspInit                                   ./ZHONX_III/Src/stm32f4xx_hal_msp.o
HAL_I2C_SlaveRxCpltCallback                       ./ZHONX_III/Drivers/STM32F4xx_HAL_Driver/Src/stm32f4xx_hal_i2c.o
HAL_I2C_SlaveTxCpltCallback                       ./ZHONX_III/Drivers/STM32F4xx_HAL_Driver/Src/stm32f4xx_hal_i2c.o
HAL_I2C_Slave_Receive                             ./ZHONX_III/Drivers/STM32F4xx_HAL_Driver/Src/stm32f4xx_hal_i2c.o
HAL_I2C_Slave_Receive_DMA                         ./ZHONX_III/Drivers/STM32F4xx_HAL_Driver/Src/stm32f4xx_hal_i2c.o
HAL_I2C_Slave_Receive_IT                          ./ZHONX_III/Drivers/STM32F4xx_HAL_Driver/Src/stm32f4xx_hal_i2c.o
HAL_I2C_Slave_Transmit                            ./ZHONX_III/Drivers/STM32F4xx_HAL_Driver/Src/stm32f4xx_hal_i2c.o
HAL_I2C_Slave_Transmit_DMA                        ./ZHONX_III/Drivers/STM32F4xx_HAL_Driver/Src/stm32f4xx_hal_i2c.o
HAL_I2C_Slave_Transmit_IT                         ./ZHONX_III/Drivers/STM32F4xx_HAL_Driver/Src/stm32f4xx_hal_i2c.o
HAL_IncTick                                       ./ZHONX_III/Drivers/STM32F4xx_HAL_Driver/Src/stm32f4xx_hal.o
                                                  ./ZHONX_III/Src/stm32f4xx_it.o
HAL_Init                                          ./ZHONX_III/Drivers/STM32F4xx_HAL_Driver/Src/stm32f4xx_hal.o
                                                  ./ZHONX_III/Src/main.o
HAL_InitTick                                      ./ZHONX_III/Drivers/STM32F4xx_HAL_Driver/Src/stm32f4xx_hal.o
                                                  ./ZHONX_III/Drivers/STM32F4xx_HAL_Driver/Src/stm32f4xx_hal_rcc.o
HAL_LIN_Init                                      ./ZHONX_III/Drivers/STM32F4xx_HAL_Driver/Src/stm32f4xx_hal_uart.o
HAL_LIN_SendBreak                                 ./ZHONX_III/Drivers/STM32F4xx_HAL_Driver/Src/stm32f4xx_hal_uart.o
HAL_MspDeInit                                     ./ZHONX_III/Drivers/STM32F4xx_HAL_Driver/Src/stm32f4xx_hal.o
HAL_MspInit                                       ./ZHONX_III/Drivers/STM32F4xx_HAL_Driver/Src/stm32f4xx_hal.o
HAL_MultiProcessor_EnterMuteMode                  ./ZHONX_III/Drivers/STM32F4xx_HAL_Driver/Src/stm32f4xx_hal_uart.o
HAL_MultiProcessor_ExitMuteMode                   ./ZHONX_III/Drivers/STM32F4xx_HAL_Driver/Src/stm32f4xx_hal_uart.o
HAL_MultiProcessor_Init                           ./ZHONX_III/Drivers/STM32F4xx_HAL_Driver/Src/stm32f4xx_hal_uart.o
HAL_NVIC_ClearPendingIRQ                          ./ZHONX_III/Drivers/STM32F4xx_HAL_Driver/Src/stm32f4xx_hal_cortex.o
                                                  ./ZHONX_III/Src/stm32f4xx_it.o
HAL_NVIC_DisableIRQ                               ./ZHONX_III/Drivers/STM32F4xx_HAL_Driver/Src/stm32f4xx_hal_cortex.o
                                                  ./ZHONX_III/Src/stm32f4xx_hal_msp.o
HAL_NVIC_EnableIRQ                                ./ZHONX_III/Drivers/STM32F4xx_HAL_Driver/Src/stm32f4xx_hal_cortex.o
                                                  ./ZHONX_III/Src/stm32f4xx_hal_msp.o
                                                  ./ZHONX_III/Src/main.o
HAL_NVIC_GetActive                                ./ZHONX_III/Drivers/STM32F4xx_HAL_Driver/Src/stm32f4xx_hal_cortex.o
HAL_NVIC_GetPendingIRQ                            ./ZHONX_III/Drivers/STM32F4xx_HAL_Driver/Src/stm32f4xx_hal_cortex.o
HAL_NVIC_GetPriority                              ./ZHONX_III/Drivers/STM32F4xx_HAL_Driver/Src/stm32f4xx_hal_cortex.o
HAL_NVIC_GetPriorityGrouping                      ./ZHONX_III/Drivers/STM32F4xx_HAL_Driver/Src/stm32f4xx_hal_cortex.o
HAL_NVIC_SetPendingIRQ                            ./ZHONX_III/Drivers/STM32F4xx_HAL_Driver/Src/stm32f4xx_hal_cortex.o
HAL_NVIC_SetPriority                              ./ZHONX_III/Drivers/STM32F4xx_HAL_Driver/Src/stm32f4xx_hal_cortex.o
                                                  ./ZHONX_III/Drivers/STM32F4xx_HAL_Driver/Src/stm32f4xx_hal.o
                                                  ./ZHONX_III/Src/stm32f4xx_hal_msp.o
                                                  ./ZHONX_III/Src/main.o
HAL_NVIC_SetPriorityGrouping                      ./ZHONX_III/Drivers/STM32F4xx_HAL_Driver/Src/stm32f4xx_hal_cortex.o
                                                  ./ZHONX_III/Drivers/STM32F4xx_HAL_Driver/Src/stm32f4xx_hal.o
                                                  ./ZHONX_III/Src/stm32f4xx_hal_msp.o
                                                  ./ZHONX_III/Src/main.o
HAL_NVIC_SystemReset                              ./ZHONX_III/Drivers/STM32F4xx_HAL_Driver/Src/stm32f4xx_hal_cortex.o
HAL_PWREx_DisableBkUpReg                          ./ZHONX_III/Drivers/STM32F4xx_HAL_Driver/Src/stm32f4xx_hal_pwr_ex.o
HAL_PWREx_DisableFlashPowerDown                   ./ZHONX_III/Drivers/STM32F4xx_HAL_Driver/Src/stm32f4xx_hal_pwr_ex.o
HAL_PWREx_EnableBkUpReg                           ./ZHONX_III/Drivers/STM32F4xx_HAL_Driver/Src/stm32f4xx_hal_pwr_ex.o
HAL_PWREx_EnableFlashPowerDown                    ./ZHONX_III/Drivers/STM32F4xx_HAL_Driver/Src/stm32f4xx_hal_pwr_ex.o
HAL_PWR_DeInit                                    ./ZHONX_III/Drivers/STM32F4xx_HAL_Driver/Src/stm32f4xx_hal_pwr.o
HAL_PWR_DisableBkUpAccess                         ./ZHONX_III/Drivers/STM32F4xx_HAL_Driver/Src/stm32f4xx_hal_pwr.o
HAL_PWR_DisablePVD                                ./ZHONX_III/Drivers/STM32F4xx_HAL_Driver/Src/stm32f4xx_hal_pwr.o
HAL_PWR_DisableWakeUpPin                          ./ZHONX_III/Drivers/STM32F4xx_HAL_Driver/Src/stm32f4xx_hal_pwr.o
HAL_PWR_EnableBkUpAccess                          ./ZHONX_III/Drivers/STM32F4xx_HAL_Driver/Src/stm32f4xx_hal_pwr.o
HAL_PWR_EnablePVD                                 ./ZHONX_III/Drivers/STM32F4xx_HAL_Driver/Src/stm32f4xx_hal_pwr.o
HAL_PWR_EnableWakeUpPin                           ./ZHONX_III/Drivers/STM32F4xx_HAL_Driver/Src/stm32f4xx_hal_pwr.o
HAL_PWR_EnterSLEEPMode                            ./ZHONX_III/Drivers/STM32F4xx_HAL_Driver/Src/stm32f4xx_hal_pwr.o
HAL_PWR_EnterSTANDBYMode                          ./ZHONX_III/Drivers/STM32F4xx_HAL_Driver/Src/stm32f4xx_hal_pwr.o
HAL_PWR_EnterSTOPMode                             ./ZHONX_III/Drivers/STM32F4xx_HAL_Driver/Src/stm32f4xx_hal_pwr.o
HAL_PWR_PVDCallback                               ./ZHONX_III/Drivers/STM32F4xx_HAL_Driver/Src/stm32f4xx_hal_pwr.o
HAL_PWR_PVDConfig                                 ./ZHONX_III/Drivers/STM32F4xx_HAL_Driver/Src/stm32f4xx_hal_pwr.o
HAL_PWR_PVD_IRQHandler                            ./ZHONX_III/Drivers/STM32F4xx_HAL_Driver/Src/stm32f4xx_hal_pwr.o
HAL_RCCEx_GetPeriphCLKConfig                      ./ZHONX_III/Drivers/STM32F4xx_HAL_Driver/Src/stm32f4xx_hal_rcc_ex.o
HAL_RCCEx_PeriphCLKConfig                         ./ZHONX_III/Drivers/STM32F4xx_HAL_Driver/Src/stm32f4xx_hal_rcc_ex.o
HAL_RCC_CCSCallback                               ./ZHONX_III/Drivers/STM32F4xx_HAL_Driver/Src/stm32f4xx_hal_rcc.o
HAL_RCC_ClockConfig                               ./ZHONX_III/Drivers/STM32F4xx_HAL_Driver/Src/stm32f4xx_hal_rcc.o
                                                  ./ZHONX_III/Src/main.o
HAL_RCC_DeInit                                    ./ZHONX_III/Drivers/STM32F4xx_HAL_Driver/Src/stm32f4xx_hal_rcc.o
HAL_RCC_DisableCSS                                ./ZHONX_III/Drivers/STM32F4xx_HAL_Driver/Src/stm32f4xx_hal_rcc.o
HAL_RCC_EnableCSS                                 ./ZHONX_III/Drivers/STM32F4xx_HAL_Driver/Src/stm32f4xx_hal_rcc.o
                                                  ./ZHONX_III/Src/main.o
HAL_RCC_GetClockConfig                            ./ZHONX_III/Drivers/STM32F4xx_HAL_Driver/Src/stm32f4xx_hal_rcc.o
HAL_RCC_GetHCLKFreq                               ./ZHONX_III/Drivers/STM32F4xx_HAL_Driver/Src/stm32f4xx_hal_rcc.o
                                                  ./ZHONX_III/Drivers/STM32F4xx_HAL_Driver/Src/stm32f4xx_hal.o
HAL_RCC_GetOscConfig                              ./ZHONX_III/Drivers/STM32F4xx_HAL_Driver/Src/stm32f4xx_hal_rcc.o
HAL_RCC_GetPCLK1Freq                              ./ZHONX_III/Drivers/STM32F4xx_HAL_Driver/Src/stm32f4xx_hal_rcc.o
                                                  ./ZHONX_III/Drivers/STM32F4xx_HAL_Driver/Src/stm32f4xx_hal_uart.o
                                                  ./ZHONX_III/Drivers/STM32F4xx_HAL_Driver/Src/stm32f4xx_hal_i2c.o
HAL_RCC_GetPCLK2Freq                              ./ZHONX_III/Drivers/STM32F4xx_HAL_Driver/Src/stm32f4xx_hal_rcc.o
                                                  ./ZHONX_III/Drivers/STM32F4xx_HAL_Driver/Src/stm32f4xx_hal_uart.o
HAL_RCC_GetSysClockFreq                           ./ZHONX_III/Drivers/STM32F4xx_HAL_Driver/Src/stm32f4xx_hal_rcc.o
HAL_RCC_MCOConfig                                 ./ZHONX_III/Drivers/STM32F4xx_HAL_Driver/Src/stm32f4xx_hal_rcc.o
HAL_RCC_NMI_IRQHandler                            ./ZHONX_III/Drivers/STM32F4xx_HAL_Driver/Src/stm32f4xx_hal_rcc.o
HAL_RCC_OscConfig                                 ./ZHONX_III/Drivers/STM32F4xx_HAL_Driver/Src/stm32f4xx_hal_rcc.o
                                                  ./ZHONX_III/Src/main.o
HAL_ResumeTick                                    ./ZHONX_III/Drivers/STM32F4xx_HAL_Driver/Src/stm32f4xx_hal.o
HAL_SYSTICK_CLKSourceConfig                       ./ZHONX_III/Drivers/STM32F4xx_HAL_Driver/Src/stm32f4xx_hal_cortex.o
HAL_SYSTICK_Callback                              ./ZHONX_III/Drivers/STM32F4xx_HAL_Driver/Src/stm32f4xx_hal_cortex.o
HAL_SYSTICK_Config                                ./ZHONX_III/Drivers/STM32F4xx_HAL_Driver/Src/stm32f4xx_hal_cortex.o
                                                  ./ZHONX_III/Drivers/STM32F4xx_HAL_Driver/Src/stm32f4xx_hal.o
HAL_SYSTICK_IRQHandler                            ./ZHONX_III/Drivers/STM32F4xx_HAL_Driver/Src/stm32f4xx_hal_cortex.o
                                                  ./ZHONX_III/Src/stm32f4xx_it.o
HAL_SuspendTick                                   ./ZHONX_III/Drivers/STM32F4xx_HAL_Driver/Src/stm32f4xx_hal.o
HAL_TIMEx_BreakCallback                           ./ZHONX_III/Drivers/STM32F4xx_HAL_Driver/Src/stm32f4xx_hal_tim_ex.o
                                                  ./ZHONX_III/Drivers/STM32F4xx_HAL_Driver/Src/stm32f4xx_hal_tim.o
HAL_TIMEx_CommutationCallback                     ./ZHONX_III/Drivers/STM32F4xx_HAL_Driver/Src/stm32f4xx_hal_tim_ex.o
                                                  ./ZHONX_III/Drivers/STM32F4xx_HAL_Driver/Src/stm32f4xx_hal_tim.o
HAL_TIMEx_ConfigBreakDeadTime                     ./ZHONX_III/Drivers/STM32F4xx_HAL_Driver/Src/stm32f4xx_hal_tim_ex.o
                                                  ./ZHONX_III/Enslavements/Straight_Controls/Straight_Controls.o
                                                  ./ZHONX_III/Peripherals/Tests/tests.o
                                                  ./ZHONX_III/Src/main.o
HAL_TIMEx_ConfigCommutationEvent                  ./ZHONX_III/Drivers/STM32F4xx_HAL_Driver/Src/stm32f4xx_hal_tim_ex.o
HAL_TIMEx_ConfigCommutationEvent_DMA              ./ZHONX_III/Drivers/STM32F4xx_HAL_Driver/Src/stm32f4xx_hal_tim_ex.o
HAL_TIMEx_ConfigCommutationEvent_IT               ./ZHONX_III/Drivers/STM32F4xx_HAL_Driver/Src/stm32f4xx_hal_tim_ex.o
HAL_TIMEx_DMACommutationCplt                      ./ZHONX_III/Drivers/STM32F4xx_HAL_Driver/Src/stm32f4xx_hal_tim_ex.o
                                                  ./ZHONX_III/Drivers/STM32F4xx_HAL_Driver/Src/stm32f4xx_hal_tim.o
HAL_TIMEx_HallSensor_DeInit                       ./ZHONX_III/Drivers/STM32F4xx_HAL_Driver/Src/stm32f4xx_hal_tim_ex.o
HAL_TIMEx_HallSensor_GetState                     ./ZHONX_III/Drivers/STM32F4xx_HAL_Driver/Src/stm32f4xx_hal_tim_ex.o
HAL_TIMEx_HallSensor_Init                         ./ZHONX_III/Drivers/STM32F4xx_HAL_Driver/Src/stm32f4xx_hal_tim_ex.o
HAL_TIMEx_HallSensor_MspDeInit                    ./ZHONX_III/Drivers/STM32F4xx_HAL_Driver/Src/stm32f4xx_hal_tim_ex.o
HAL_TIMEx_HallSensor_MspInit                      ./ZHONX_III/Drivers/STM32F4xx_HAL_Driver/Src/stm32f4xx_hal_tim_ex.o
HAL_TIMEx_HallSensor_Start                        ./ZHONX_III/Drivers/STM32F4xx_HAL_Driver/Src/stm32f4xx_hal_tim_ex.o
HAL_TIMEx_HallSensor_Start_DMA                    ./ZHONX_III/Drivers/STM32F4xx_HAL_Driver/Src/stm32f4xx_hal_tim_ex.o
HAL_TIMEx_HallSensor_Start_IT                     ./ZHONX_III/Drivers/STM32F4xx_HAL_Driver/Src/stm32f4xx_hal_tim_ex.o
HAL_TIMEx_HallSensor_Stop                         ./ZHONX_III/Drivers/STM32F4xx_HAL_Driver/Src/stm32f4xx_hal_tim_ex.o
HAL_TIMEx_HallSensor_Stop_DMA                     ./ZHONX_III/Drivers/STM32F4xx_HAL_Driver/Src/stm32f4xx_hal_tim_ex.o
HAL_TIMEx_HallSensor_Stop_IT                      ./ZHONX_III/Drivers/STM32F4xx_HAL_Driver/Src/stm32f4xx_hal_tim_ex.o
HAL_TIMEx_MasterConfigSynchronization             ./ZHONX_III/Drivers/STM32F4xx_HAL_Driver/Src/stm32f4xx_hal_tim_ex.o
                                                  ./ZHONX_III/Enslavements/Straight_Controls/Straight_Controls.o
                                                  ./ZHONX_III/Peripherals/Encoders/IE512.o
                                                  ./ZHONX_III/Peripherals/Tests/tests.o
                                                  ./ZHONX_III/Src/main.o
                                                  ./ZHONX_III/TimesBase/TimesBase.o
HAL_TIMEx_OCN_Start                               ./ZHONX_III/Drivers/STM32F4xx_HAL_Driver/Src/stm32f4xx_hal_tim_ex.o
HAL_TIMEx_OCN_Start_DMA                           ./ZHONX_III/Drivers/STM32F4xx_HAL_Driver/Src/stm32f4xx_hal_tim_ex.o
HAL_TIMEx_OCN_Start_IT                            ./ZHONX_III/Drivers/STM32F4xx_HAL_Driver/Src/stm32f4xx_hal_tim_ex.o
HAL_TIMEx_OCN_Stop                                ./ZHONX_III/Drivers/STM32F4xx_HAL_Driver/Src/stm32f4xx_hal_tim_ex.o
HAL_TIMEx_OCN_Stop_DMA                            ./ZHONX_III/Drivers/STM32F4xx_HAL_Driver/Src/stm32f4xx_hal_tim_ex.o
HAL_TIMEx_OCN_Stop_IT                             ./ZHONX_III/Drivers/STM32F4xx_HAL_Driver/Src/stm32f4xx_hal_tim_ex.o
HAL_TIMEx_OnePulseN_Start                         ./ZHONX_III/Drivers/STM32F4xx_HAL_Driver/Src/stm32f4xx_hal_tim_ex.o
HAL_TIMEx_OnePulseN_Start_IT                      ./ZHONX_III/Drivers/STM32F4xx_HAL_Driver/Src/stm32f4xx_hal_tim_ex.o
HAL_TIMEx_OnePulseN_Stop                          ./ZHONX_III/Drivers/STM32F4xx_HAL_Driver/Src/stm32f4xx_hal_tim_ex.o
HAL_TIMEx_OnePulseN_Stop_IT                       ./ZHONX_III/Drivers/STM32F4xx_HAL_Driver/Src/stm32f4xx_hal_tim_ex.o
HAL_TIMEx_PWMN_Start                              ./ZHONX_III/Drivers/STM32F4xx_HAL_Driver/Src/stm32f4xx_hal_tim_ex.o
HAL_TIMEx_PWMN_Start_DMA                          ./ZHONX_III/Drivers/STM32F4xx_HAL_Driver/Src/stm32f4xx_hal_tim_ex.o
HAL_TIMEx_PWMN_Start_IT                           ./ZHONX_III/Drivers/STM32F4xx_HAL_Driver/Src/stm32f4xx_hal_tim_ex.o
HAL_TIMEx_PWMN_Stop                               ./ZHONX_III/Drivers/STM32F4xx_HAL_Driver/Src/stm32f4xx_hal_tim_ex.o
HAL_TIMEx_PWMN_Stop_DMA                           ./ZHONX_III/Drivers/STM32F4xx_HAL_Driver/Src/stm32f4xx_hal_tim_ex.o
HAL_TIMEx_PWMN_Stop_IT                            ./ZHONX_III/Drivers/STM32F4xx_HAL_Driver/Src/stm32f4xx_hal_tim_ex.o
HAL_TIMEx_RemapConfig                             ./ZHONX_III/Drivers/STM32F4xx_HAL_Driver/Src/stm32f4xx_hal_tim_ex.o
HAL_TIM_Base_DeInit                               ./ZHONX_III/Drivers/STM32F4xx_HAL_Driver/Src/stm32f4xx_hal_tim.o
HAL_TIM_Base_GetState                             ./ZHONX_III/Drivers/STM32F4xx_HAL_Driver/Src/stm32f4xx_hal_tim.o
HAL_TIM_Base_Init                                 ./ZHONX_III/Drivers/STM32F4xx_HAL_Driver/Src/stm32f4xx_hal_tim.o
                                                  ./ZHONX_III/Enslavements/Straight_Controls/Straight_Controls.o
                                                  ./ZHONX_III/Peripherals/Telemeters/Telemeters.o
                                                  ./ZHONX_III/Peripherals/Tests/tests.o
                                                  ./ZHONX_III/Src/main.o
                                                  ./ZHONX_III/TimesBase/TimesBase.o
HAL_TIM_Base_MspDeInit                            ./ZHONX_III/Src/stm32f4xx_hal_msp.o
HAL_TIM_Base_MspInit                              ./ZHONX_III/Src/stm32f4xx_hal_msp.o
HAL_TIM_Base_Start                                ./ZHONX_III/Drivers/STM32F4xx_HAL_Driver/Src/stm32f4xx_hal_tim.o
HAL_TIM_Base_Start_DMA                            ./ZHONX_III/Drivers/STM32F4xx_HAL_Driver/Src/stm32f4xx_hal_tim.o
HAL_TIM_Base_Start_IT                             ./ZHONX_III/Drivers/STM32F4xx_HAL_Driver/Src/stm32f4xx_hal_tim.o
                                                  ./ZHONX_III/Peripherals/Encoders/IE512.o
                                                  ./ZHONX_III/Peripherals/Telemeters/Telemeters.o
                                                  ./ZHONX_III/TimesBase/TimesBase.o
HAL_TIM_Base_Stop                                 ./ZHONX_III/Drivers/STM32F4xx_HAL_Driver/Src/stm32f4xx_hal_tim.o
HAL_TIM_Base_Stop_DMA                             ./ZHONX_III/Drivers/STM32F4xx_HAL_Driver/Src/stm32f4xx_hal_tim.o
HAL_TIM_Base_Stop_IT                              ./ZHONX_III/Drivers/STM32F4xx_HAL_Driver/Src/stm32f4xx_hal_tim.o
HAL_TIM_ConfigClockSource                         ./ZHONX_III/Drivers/STM32F4xx_HAL_Driver/Src/stm32f4xx_hal_tim.o
                                                  ./ZHONX_III/Enslavements/Straight_Controls/Straight_Controls.o
                                                  ./ZHONX_III/Peripherals/Tests/tests.o
                                                  ./ZHONX_III/Src/main.o
HAL_TIM_ConfigOCrefClear                          ./ZHONX_III/Drivers/STM32F4xx_HAL_Driver/Src/stm32f4xx_hal_tim.o
HAL_TIM_ConfigTI1Input                            ./ZHONX_III/Drivers/STM32F4xx_HAL_Driver/Src/stm32f4xx_hal_tim.o
HAL_TIM_DMABurst_ReadStart                        ./ZHONX_III/Drivers/STM32F4xx_HAL_Driver/Src/stm32f4xx_hal_tim.o
HAL_TIM_DMABurst_ReadStop                         ./ZHONX_III/Drivers/STM32F4xx_HAL_Driver/Src/stm32f4xx_hal_tim.o
HAL_TIM_DMABurst_WriteStart                       ./ZHONX_III/Drivers/STM32F4xx_HAL_Driver/Src/stm32f4xx_hal_tim.o
HAL_TIM_DMABurst_WriteStop                        ./ZHONX_III/Drivers/STM32F4xx_HAL_Driver/Src/stm32f4xx_hal_tim.o
HAL_TIM_DMACaptureCplt                            ./ZHONX_III/Drivers/STM32F4xx_HAL_Driver/Src/stm32f4xx_hal_tim.o
                                                  ./ZHONX_III/Drivers/STM32F4xx_HAL_Driver/Src/stm32f4xx_hal_tim_ex.o
HAL_TIM_DMADelayPulseCplt                         ./ZHONX_III/Drivers/STM32F4xx_HAL_Driver/Src/stm32f4xx_hal_tim.o
                                                  ./ZHONX_III/Drivers/STM32F4xx_HAL_Driver/Src/stm32f4xx_hal_tim_ex.o
HAL_TIM_DMAError                                  ./ZHONX_III/Drivers/STM32F4xx_HAL_Driver/Src/stm32f4xx_hal_tim.o
                                                  ./ZHONX_III/Drivers/STM32F4xx_HAL_Driver/Src/stm32f4xx_hal_tim_ex.o
HAL_TIM_Encoder_DeInit                            ./ZHONX_III/Drivers/STM32F4xx_HAL_Driver/Src/stm32f4xx_hal_tim.o
HAL_TIM_Encoder_GetState                          ./ZHONX_III/Drivers/STM32F4xx_HAL_Driver/Src/stm32f4xx_hal_tim.o
HAL_TIM_Encoder_Init                              ./ZHONX_III/Drivers/STM32F4xx_HAL_Driver/Src/stm32f4xx_hal_tim.o
                                                  ./ZHONX_III/Peripherals/Encoders/IE512.o
                                                  ./ZHONX_III/Src/main.o
HAL_TIM_Encoder_MspDeInit                         ./ZHONX_III/Src/stm32f4xx_hal_msp.o
HAL_TIM_Encoder_MspInit                           ./ZHONX_III/Src/stm32f4xx_hal_msp.o
HAL_TIM_Encoder_Start                             ./ZHONX_III/Drivers/STM32F4xx_HAL_Driver/Src/stm32f4xx_hal_tim.o
                                                  ./ZHONX_III/Peripherals/Encoders/IE512.o
HAL_TIM_Encoder_Start_DMA                         ./ZHONX_III/Drivers/STM32F4xx_HAL_Driver/Src/stm32f4xx_hal_tim.o
HAL_TIM_Encoder_Start_IT                          ./ZHONX_III/Drivers/STM32F4xx_HAL_Driver/Src/stm32f4xx_hal_tim.o
HAL_TIM_Encoder_Stop                              ./ZHONX_III/Drivers/STM32F4xx_HAL_Driver/Src/stm32f4xx_hal_tim.o
HAL_TIM_Encoder_Stop_DMA                          ./ZHONX_III/Drivers/STM32F4xx_HAL_Driver/Src/stm32f4xx_hal_tim.o
HAL_TIM_Encoder_Stop_IT                           ./ZHONX_III/Drivers/STM32F4xx_HAL_Driver/Src/stm32f4xx_hal_tim.o
HAL_TIM_ErrorCallback                             ./ZHONX_III/Drivers/STM32F4xx_HAL_Driver/Src/stm32f4xx_hal_tim.o
HAL_TIM_GenerateEvent                             ./ZHONX_III/Drivers/STM32F4xx_HAL_Driver/Src/stm32f4xx_hal_tim.o
HAL_TIM_IC_CaptureCallback                        ./ZHONX_III/Drivers/STM32F4xx_HAL_Driver/Src/stm32f4xx_hal_tim.o
HAL_TIM_IC_ConfigChannel                          ./ZHONX_III/Drivers/STM32F4xx_HAL_Driver/Src/stm32f4xx_hal_tim.o
HAL_TIM_IC_DeInit                                 ./ZHONX_III/Drivers/STM32F4xx_HAL_Driver/Src/stm32f4xx_hal_tim.o
HAL_TIM_IC_GetState                               ./ZHONX_III/Drivers/STM32F4xx_HAL_Driver/Src/stm32f4xx_hal_tim.o
HAL_TIM_IC_Init                                   ./ZHONX_III/Drivers/STM32F4xx_HAL_Driver/Src/stm32f4xx_hal_tim.o
HAL_TIM_IC_MspDeInit                              ./ZHONX_III/Drivers/STM32F4xx_HAL_Driver/Src/stm32f4xx_hal_tim.o
HAL_TIM_IC_MspInit                                ./ZHONX_III/Drivers/STM32F4xx_HAL_Driver/Src/stm32f4xx_hal_tim.o
HAL_TIM_IC_Start                                  ./ZHONX_III/Drivers/STM32F4xx_HAL_Driver/Src/stm32f4xx_hal_tim.o
HAL_TIM_IC_Start_DMA                              ./ZHONX_III/Drivers/STM32F4xx_HAL_Driver/Src/stm32f4xx_hal_tim.o
HAL_TIM_IC_Start_IT                               ./ZHONX_III/Drivers/STM32F4xx_HAL_Driver/Src/stm32f4xx_hal_tim.o
HAL_TIM_IC_Stop                                   ./ZHONX_III/Drivers/STM32F4xx_HAL_Driver/Src/stm32f4xx_hal_tim.o
HAL_TIM_IC_Stop_DMA                               ./ZHONX_III/Drivers/STM32F4xx_HAL_Driver/Src/stm32f4xx_hal_tim.o
HAL_TIM_IC_Stop_IT                                ./ZHONX_III/Drivers/STM32F4xx_HAL_Driver/Src/stm32f4xx_hal_tim.o
HAL_TIM_IRQHandler                                ./ZHONX_III/Drivers/STM32F4xx_HAL_Driver/Src/stm32f4xx_hal_tim.o
                                                  ./ZHONX_III/Src/stm32f4xx_it.o
HAL_TIM_OC_ConfigChannel                          ./ZHONX_III/Drivers/STM32F4xx_HAL_Driver/Src/stm32f4xx_hal_tim.o
HAL_TIM_OC_DeInit                                 ./ZHONX_III/Drivers/STM32F4xx_HAL_Driver/Src/stm32f4xx_hal_tim.o
HAL_TIM_OC_DelayElapsedCallback                   ./ZHONX_III/Drivers/STM32F4xx_HAL_Driver/Src/stm32f4xx_hal_tim.o
HAL_TIM_OC_GetState                               ./ZHONX_III/Drivers/STM32F4xx_HAL_Driver/Src/stm32f4xx_hal_tim.o
HAL_TIM_OC_Init                                   ./ZHONX_III/Drivers/STM32F4xx_HAL_Driver/Src/stm32f4xx_hal_tim.o
HAL_TIM_OC_MspDeInit                              ./ZHONX_III/Drivers/STM32F4xx_HAL_Driver/Src/stm32f4xx_hal_tim.o
HAL_TIM_OC_MspInit                                ./ZHONX_III/Drivers/STM32F4xx_HAL_Driver/Src/stm32f4xx_hal_tim.o
HAL_TIM_OC_Start                                  ./ZHONX_III/Drivers/STM32F4xx_HAL_Driver/Src/stm32f4xx_hal_tim.o
HAL_TIM_OC_Start_DMA                              ./ZHONX_III/Drivers/STM32F4xx_HAL_Driver/Src/stm32f4xx_hal_tim.o
HAL_TIM_OC_Start_IT                               ./ZHONX_III/Drivers/STM32F4xx_HAL_Driver/Src/stm32f4xx_hal_tim.o
HAL_TIM_OC_Stop                                   ./ZHONX_III/Drivers/STM32F4xx_HAL_Driver/Src/stm32f4xx_hal_tim.o
HAL_TIM_OC_Stop_DMA                               ./ZHONX_III/Drivers/STM32F4xx_HAL_Driver/Src/stm32f4xx_hal_tim.o
HAL_TIM_OC_Stop_IT                                ./ZHONX_III/Drivers/STM32F4xx_HAL_Driver/Src/stm32f4xx_hal_tim.o
HAL_TIM_OnePulse_ConfigChannel                    ./ZHONX_III/Drivers/STM32F4xx_HAL_Driver/Src/stm32f4xx_hal_tim.o
HAL_TIM_OnePulse_DeInit                           ./ZHONX_III/Drivers/STM32F4xx_HAL_Driver/Src/stm32f4xx_hal_tim.o
HAL_TIM_OnePulse_GetState                         ./ZHONX_III/Drivers/STM32F4xx_HAL_Driver/Src/stm32f4xx_hal_tim.o
HAL_TIM_OnePulse_Init                             ./ZHONX_III/Drivers/STM32F4xx_HAL_Driver/Src/stm32f4xx_hal_tim.o
HAL_TIM_OnePulse_MspDeInit                        ./ZHONX_III/Drivers/STM32F4xx_HAL_Driver/Src/stm32f4xx_hal_tim.o
HAL_TIM_OnePulse_MspInit                          ./ZHONX_III/Drivers/STM32F4xx_HAL_Driver/Src/stm32f4xx_hal_tim.o
HAL_TIM_OnePulse_Start                            ./ZHONX_III/Drivers/STM32F4xx_HAL_Driver/Src/stm32f4xx_hal_tim.o
HAL_TIM_OnePulse_Start_IT                         ./ZHONX_III/Drivers/STM32F4xx_HAL_Driver/Src/stm32f4xx_hal_tim.o
HAL_TIM_OnePulse_Stop                             ./ZHONX_III/Drivers/STM32F4xx_HAL_Driver/Src/stm32f4xx_hal_tim.o
HAL_TIM_OnePulse_Stop_IT                          ./ZHONX_III/Drivers/STM32F4xx_HAL_Driver/Src/stm32f4xx_hal_tim.o
HAL_TIM_PWM_ConfigChannel                         ./ZHONX_III/Drivers/STM32F4xx_HAL_Driver/Src/stm32f4xx_hal_tim.o
                                                  ./ZHONX_III/Enslavements/Straight_Controls/Straight_Controls.o
                                                  ./ZHONX_III/Peripherals/Tests/tests.o
                                                  ./ZHONX_III/Src/main.o
HAL_TIM_PWM_DeInit                                ./ZHONX_III/Drivers/STM32F4xx_HAL_Driver/Src/stm32f4xx_hal_tim.o
HAL_TIM_PWM_GetState                              ./ZHONX_III/Drivers/STM32F4xx_HAL_Driver/Src/stm32f4xx_hal_tim.o
HAL_TIM_PWM_Init                                  ./ZHONX_III/Drivers/STM32F4xx_HAL_Driver/Src/stm32f4xx_hal_tim.o
                                                  ./ZHONX_III/Enslavements/Straight_Controls/Straight_Controls.o
                                                  ./ZHONX_III/Peripherals/Tests/tests.o
                                                  ./ZHONX_III/Src/main.o
HAL_TIM_PWM_MspDeInit                             ./ZHONX_III/Src/stm32f4xx_hal_msp.o
HAL_TIM_PWM_MspInit                               ./ZHONX_III/Src/stm32f4xx_hal_msp.o
HAL_TIM_PWM_PulseFinishedCallback                 ./ZHONX_III/Drivers/STM32F4xx_HAL_Driver/Src/stm32f4xx_hal_tim.o
HAL_TIM_PWM_Start                                 ./ZHONX_III/Drivers/STM32F4xx_HAL_Driver/Src/stm32f4xx_hal_tim.o
                                                  ./ZHONX_III/Enslavements/Straight_Controls/Straight_Controls.o
                                                  ./ZHONX_III/Peripherals/Tests/tests.o
HAL_TIM_PWM_Start_DMA                             ./ZHONX_III/Drivers/STM32F4xx_HAL_Driver/Src/stm32f4xx_hal_tim.o
HAL_TIM_PWM_Start_IT                              ./ZHONX_III/Drivers/STM32F4xx_HAL_Driver/Src/stm32f4xx_hal_tim.o
HAL_TIM_PWM_Stop                                  ./ZHONX_III/Drivers/STM32F4xx_HAL_Driver/Src/stm32f4xx_hal_tim.o
                                                  ./ZHONX_III/Peripherals/Tests/tests.o
HAL_TIM_PWM_Stop_DMA                              ./ZHONX_III/Drivers/STM32F4xx_HAL_Driver/Src/stm32f4xx_hal_tim.o
HAL_TIM_PWM_Stop_IT                               ./ZHONX_III/Drivers/STM32F4xx_HAL_Driver/Src/stm32f4xx_hal_tim.o
HAL_TIM_PeriodElapsedCallback                     ./ZHONX_III/Src/user_it_callback.o
HAL_TIM_ReadCapturedValue                         ./ZHONX_III/Drivers/STM32F4xx_HAL_Driver/Src/stm32f4xx_hal_tim.o
HAL_TIM_SlaveConfigSynchronization                ./ZHONX_III/Drivers/STM32F4xx_HAL_Driver/Src/stm32f4xx_hal_tim.o
HAL_TIM_TriggerCallback                           ./ZHONX_III/Drivers/STM32F4xx_HAL_Driver/Src/stm32f4xx_hal_tim.o
HAL_UART_DMAPause                                 ./ZHONX_III/Drivers/STM32F4xx_HAL_Driver/Src/stm32f4xx_hal_uart.o
HAL_UART_DMAResume                                ./ZHONX_III/Drivers/STM32F4xx_HAL_Driver/Src/stm32f4xx_hal_uart.o
HAL_UART_DMAStop                                  ./ZHONX_III/Drivers/STM32F4xx_HAL_Driver/Src/stm32f4xx_hal_uart.o
HAL_UART_DeInit                                   ./ZHONX_III/Drivers/STM32F4xx_HAL_Driver/Src/stm32f4xx_hal_uart.o
HAL_UART_ErrorCallback                            ./ZHONX_III/Drivers/STM32F4xx_HAL_Driver/Src/stm32f4xx_hal_uart.o
HAL_UART_GetError                                 ./ZHONX_III/Drivers/STM32F4xx_HAL_Driver/Src/stm32f4xx_hal_uart.o
HAL_UART_GetState                                 ./ZHONX_III/Drivers/STM32F4xx_HAL_Driver/Src/stm32f4xx_hal_uart.o
HAL_UART_IRQHandler                               ./ZHONX_III/Drivers/STM32F4xx_HAL_Driver/Src/stm32f4xx_hal_uart.o
HAL_UART_Init                                     ./ZHONX_III/Drivers/STM32F4xx_HAL_Driver/Src/stm32f4xx_hal_uart.o
                                                  ./ZHONX_III/Src/main.o
HAL_UART_MspDeInit                                ./ZHONX_III/Src/stm32f4xx_hal_msp.o
HAL_UART_MspInit                                  ./ZHONX_III/Src/stm32f4xx_hal_msp.o
HAL_UART_Receive                                  ./ZHONX_III/Drivers/STM32F4xx_HAL_Driver/Src/stm32f4xx_hal_uart.o
HAL_UART_Receive_DMA                              ./ZHONX_III/Drivers/STM32F4xx_HAL_Driver/Src/stm32f4xx_hal_uart.o
HAL_UART_Receive_IT                               ./ZHONX_III/Drivers/STM32F4xx_HAL_Driver/Src/stm32f4xx_hal_uart.o
HAL_UART_RxCpltCallback                           ./ZHONX_III/Drivers/STM32F4xx_HAL_Driver/Src/stm32f4xx_hal_uart.o
HAL_UART_RxHalfCpltCallback                       ./ZHONX_III/Drivers/STM32F4xx_HAL_Driver/Src/stm32f4xx_hal_uart.o
HAL_UART_Transmit                                 ./ZHONX_III/Drivers/STM32F4xx_HAL_Driver/Src/stm32f4xx_hal_uart.o
                                                  ./ZHONX_III/Peripherals/Bluetooth/Bluetooth.o
HAL_UART_Transmit_DMA                             ./ZHONX_III/Drivers/STM32F4xx_HAL_Driver/Src/stm32f4xx_hal_uart.o
HAL_UART_Transmit_IT                              ./ZHONX_III/Drivers/STM32F4xx_HAL_Driver/Src/stm32f4xx_hal_uart.o
HAL_UART_TxCpltCallback                           ./ZHONX_III/Drivers/STM32F4xx_HAL_Driver/Src/stm32f4xx_hal_uart.o
HAL_UART_TxHalfCpltCallback                       ./ZHONX_III/Drivers/STM32F4xx_HAL_Driver/Src/stm32f4xx_hal_uart.o
HASH_RNG_IRQHandler                               ./ZHONX_III/Drivers/CMSIS/Device/ST/STM32F4xx/Source/Templates/gcc/startup_stm32f405xx.o
HardFault_Handler                                 ./ZHONX_III/Drivers/CMSIS/Device/ST/STM32F4xx/Source/Templates/gcc/startup_stm32f405xx.o
High_Freq_IT                                      ./ZHONX_III/TimesBase/TimesBase.o
                                                  ./ZHONX_III/Src/user_it_callback.o
I2C1_ER_IRQHandler                                ./ZHONX_III/Src/stm32f4xx_it.o
I2C1_EV_IRQHandler                                ./ZHONX_III/Src/stm32f4xx_it.o
I2C2_ER_IRQHandler                                ./ZHONX_III/Drivers/CMSIS/Device/ST/STM32F4xx/Source/Templates/gcc/startup_stm32f405xx.o
I2C2_EV_IRQHandler                                ./ZHONX_III/Drivers/CMSIS/Device/ST/STM32F4xx/Source/Templates/gcc/startup_stm32f405xx.o
I2C3_ER_IRQHandler                                ./ZHONX_III/Drivers/CMSIS/Device/ST/STM32F4xx/Source/Templates/gcc/startup_stm32f405xx.o
I2C3_EV_IRQHandler                                ./ZHONX_III/Drivers/CMSIS/Device/ST/STM32F4xx/Source/Templates/gcc/startup_stm32f405xx.o
L_diag_distance                                   ./ZHONX_III/Peripherals/Telemeters/Telemeters.o
                                                  ./ZHONX_III/Peripherals/Tests/tests.o
L_front_distance                                  ./ZHONX_III/Peripherals/Telemeters/Telemeters.o
                                                  ./ZHONX_III/Peripherals/Tests/tests.o
Led_Blink_IT                                      ./ZHONX_III/TimesBase/TimesBase.o
Led_Power_Blink                                   ./ZHONX_III/TimesBase/TimesBase.o
                                                  ./ZHONX_III/Src/main.o
Left_Encoder_IT                                   ./ZHONX_III/Peripherals/Encoders/IE512.o
                                                  ./ZHONX_III/Src/user_it_callback.o
Low_Freq_IT                                       ./ZHONX_III/TimesBase/TimesBase.o
                                                  ./ZHONX_III/Src/user_it_callback.o
MemManage_Handler                                 ./ZHONX_III/Drivers/CMSIS/Device/ST/STM32F4xx/Source/Templates/gcc/startup_stm32f405xx.o
NMI_Handler                                       ./ZHONX_III/Drivers/CMSIS/Device/ST/STM32F4xx/Source/Templates/gcc/startup_stm32f405xx.o
OTG_FS_IRQHandler                                 ./ZHONX_III/Drivers/CMSIS/Device/ST/STM32F4xx/Source/Templates/gcc/startup_stm32f405xx.o
OTG_FS_WKUP_IRQHandler                            ./ZHONX_III/Drivers/CMSIS/Device/ST/STM32F4xx/Source/Templates/gcc/startup_stm32f405xx.o
OTG_HS_EP1_IN_IRQHandler                          ./ZHONX_III/Drivers/CMSIS/Device/ST/STM32F4xx/Source/Templates/gcc/startup_stm32f405xx.o
OTG_HS_EP1_OUT_IRQHandler                         ./ZHONX_III/Drivers/CMSIS/Device/ST/STM32F4xx/Source/Templates/gcc/startup_stm32f405xx.o
OTG_HS_IRQHandler                                 ./ZHONX_III/Drivers/CMSIS/Device/ST/STM32F4xx/Source/Templates/gcc/startup_stm32f405xx.o
OTG_HS_WKUP_IRQHandler                            ./ZHONX_III/Drivers/CMSIS/Device/ST/STM32F4xx/Source/Templates/gcc/startup_stm32f405xx.o
PVD_IRQHandler                                    ./ZHONX_III/Drivers/CMSIS/Device/ST/STM32F4xx/Source/Templates/gcc/startup_stm32f405xx.o
PendSV_Handler                                    ./ZHONX_III/Drivers/CMSIS/Device/ST/STM32F4xx/Source/Templates/gcc/startup_stm32f405xx.o
Pid                                               ./ZHONX_III/Enslavements/PID/PID.o
                                                  ./ZHONX_III/Enslavements/Straight_Controls/Straight_Controls.o
Pid_Init                                          ./ZHONX_III/Enslavements/PID/PID.o
                                                  ./ZHONX_III/Enslavements/Straight_Controls/Straight_Controls.o
Pid_Reset                                         ./ZHONX_III/Enslavements/PID/PID.o
Pids_IT                                           ./ZHONX_III/Enslavements/PID/PID.o
                                                  ./ZHONX_III/TimesBase/TimesBase.o
Pulses                                            ./ZHONX_III/Enslavements/Straight_Controls/Straight_Controls.o
Pwm_Init                                          ./ZHONX_III/Enslavements/Straight_Controls/Straight_Controls.o
RCC_IRQHandler                                    ./ZHONX_III/Drivers/CMSIS/Device/ST/STM32F4xx/Source/Templates/gcc/startup_stm32f405xx.o
RTC_Alarm_IRQHandler                              ./ZHONX_III/Drivers/CMSIS/Device/ST/STM32F4xx/Source/Templates/gcc/startup_stm32f405xx.o
RTC_WKUP_IRQHandler                               ./ZHONX_III/Drivers/CMSIS/Device/ST/STM32F4xx/Source/Templates/gcc/startup_stm32f405xx.o
R_diag_distance                                   ./ZHONX_III/Peripherals/Telemeters/Telemeters.o
                                                  ./ZHONX_III/Peripherals/Tests/tests.o
R_front_distance                                  ./ZHONX_III/Peripherals/Telemeters/Telemeters.o
                                                  ./ZHONX_III/Peripherals/Tests/tests.o
Reset_Handler                                     ./ZHONX_III/Drivers/CMSIS/Device/ST/STM32F4xx/Source/Templates/gcc/startup_stm32f405xx.o
Right_Encoder_IT                                  ./ZHONX_III/Peripherals/Encoders/IE512.o
                                                  ./ZHONX_III/Src/user_it_callback.o
SDIO_IRQHandler                                   ./ZHONX_III/Drivers/CMSIS/Device/ST/STM32F4xx/Source/Templates/gcc/startup_stm32f405xx.o
SPI1_IRQHandler                                   ./ZHONX_III/Drivers/CMSIS/Device/ST/STM32F4xx/Source/Templates/gcc/startup_stm32f405xx.o
SPI2_IRQHandler                                   ./ZHONX_III/Drivers/CMSIS/Device/ST/STM32F4xx/Source/Templates/gcc/startup_stm32f405xx.o
SPI3_IRQHandler                                   ./ZHONX_III/Drivers/CMSIS/Device/ST/STM32F4xx/Source/Templates/gcc/startup_stm32f405xx.o
SVC_Handler                                       ./ZHONX_III/Drivers/CMSIS/Device/ST/STM32F4xx/Source/Templates/gcc/startup_stm32f405xx.o
Straight_Control_IT                               ./ZHONX_III/Enslavements/Straight_Controls/Straight_Controls.o
                                                  ./ZHONX_III/Enslavements/PID/PID.o
Straight_Control_Start                            ./ZHONX_III/Enslavements/Straight_Controls/Straight_Controls.o
                                                  ./ZHONX_III/Src/main.o
SysTick_Handler                                   ./ZHONX_III/Src/stm32f4xx_it.o
SystemClock_Config                                ./ZHONX_III/Src/main.o
SystemCoreClock                                   ./ZHONX_III/Drivers/CMSIS/Device/ST/STM32F4xx/Source/Templates/system_stm32f4xx.o
                                                  ./ZHONX_III/Drivers/STM32F4xx_HAL_Driver/Src/stm32f4xx_hal_rcc.o
                                                  ./ZHONX_III/Peripherals/Telemeters/Telemeters.o
                                                  ./ZHONX_III/TimesBase/TimesBase.o
SystemCoreClockUpdate                             ./ZHONX_III/Drivers/CMSIS/Device/ST/STM32F4xx/Source/Templates/system_stm32f4xx.o
SystemInit                                        ./ZHONX_III/Drivers/CMSIS/Device/ST/STM32F4xx/Source/Templates/system_stm32f4xx.o
                                                  ./ZHONX_III/Drivers/CMSIS/Device/ST/STM32F4xx/Source/Templates/gcc/startup_stm32f405xx.o
TAMP_STAMP_IRQHandler                             ./ZHONX_III/Drivers/CMSIS/Device/ST/STM32F4xx/Source/Templates/gcc/startup_stm32f405xx.o
TIM1_BRK_TIM9_IRQHandler                          ./ZHONX_III/Drivers/CMSIS/Device/ST/STM32F4xx/Source/Templates/gcc/startup_stm32f405xx.o
TIM1_CC_IRQHandler                                ./ZHONX_III/Drivers/CMSIS/Device/ST/STM32F4xx/Source/Templates/gcc/startup_stm32f405xx.o
TIM1_TRG_COM_TIM11_IRQHandler                     ./ZHONX_III/Drivers/CMSIS/Device/ST/STM32F4xx/Source/Templates/gcc/startup_stm32f405xx.o
TIM1_UP_TIM10_IRQHandler                          ./ZHONX_III/Src/stm32f4xx_it.o
TIM2_IRQHandler                                   ./ZHONX_III/Drivers/CMSIS/Device/ST/STM32F4xx/Source/Templates/gcc/startup_stm32f405xx.o
TIM3_IRQHandler                                   ./ZHONX_III/Src/stm32f4xx_it.o
TIM4_IRQHandler                                   ./ZHONX_III/Drivers/CMSIS/Device/ST/STM32F4xx/Source/Templates/gcc/startup_stm32f405xx.o
TIM5_IRQHandler                                   ./ZHONX_III/Drivers/CMSIS/Device/ST/STM32F4xx/Source/Templates/gcc/startup_stm32f405xx.o
TIM6_DAC_IRQHandler                               ./ZHONX_III/Src/stm32f4xx_it.o
TIM7_IRQHandler                                   ./ZHONX_III/Src/stm32f4xx_it.o
TIM8_BRK_TIM12_IRQHandler                         ./ZHONX_III/Drivers/CMSIS/Device/ST/STM32F4xx/Source/Templates/gcc/startup_stm32f405xx.o
TIM8_CC_IRQHandler                                ./ZHONX_III/Drivers/CMSIS/Device/ST/STM32F4xx/Source/Templates/gcc/startup_stm32f405xx.o
TIM8_TRG_COM_TIM14_IRQHandler                     ./ZHONX_III/Drivers/CMSIS/Device/ST/STM32F4xx/Source/Templates/gcc/startup_stm32f405xx.o
TIM8_UP_TIM13_IRQHandler                          ./ZHONX_III/Drivers/CMSIS/Device/ST/STM32F4xx/Source/Templates/gcc/startup_stm32f405xx.o
TIM_Base_SetConfig                                ./ZHONX_III/Drivers/STM32F4xx_HAL_Driver/Src/stm32f4xx_hal_tim.o
                                                  ./ZHONX_III/Drivers/STM32F4xx_HAL_Driver/Src/stm32f4xx_hal_tim_ex.o
TIM_CCxChannelCmd                                 ./ZHONX_III/Drivers/STM32F4xx_HAL_Driver/Src/stm32f4xx_hal_tim.o
                                                  ./ZHONX_III/Drivers/STM32F4xx_HAL_Driver/Src/stm32f4xx_hal_tim_ex.o
TIM_OC2_SetConfig                                 ./ZHONX_III/Drivers/STM32F4xx_HAL_Driver/Src/stm32f4xx_hal_tim.o
                                                  ./ZHONX_III/Drivers/STM32F4xx_HAL_Driver/Src/stm32f4xx_hal_tim_ex.o
TIM_TI1_SetConfig                                 ./ZHONX_III/Drivers/STM32F4xx_HAL_Driver/Src/stm32f4xx_hal_tim.o
                                                  ./ZHONX_III/Drivers/STM32F4xx_HAL_Driver/Src/stm32f4xx_hal_tim_ex.o
Telemeters_IT                                     ./ZHONX_III/Peripherals/Telemeters/Telemeters.o
                                                  ./ZHONX_III/Src/user_it_callback.o
Telemeters_Init                                   ./ZHONX_III/Peripherals/Telemeters/Telemeters.o
                                                  ./ZHONX_III/Peripherals/Tests/tests.o
TimesBase_Init                                    ./ZHONX_III/TimesBase/TimesBase.o
                                                  ./ZHONX_III/Src/main.o
UART4_IRQHandler                                  ./ZHONX_III/Drivers/CMSIS/Device/ST/STM32F4xx/Source/Templates/gcc/startup_stm32f405xx.o
UART5_IRQHandler                                  ./ZHONX_III/Drivers/CMSIS/Device/ST/STM32F4xx/Source/Templates/gcc/startup_stm32f405xx.o
USART1_IRQHandler                                 ./ZHONX_III/Drivers/CMSIS/Device/ST/STM32F4xx/Source/Templates/gcc/startup_stm32f405xx.o
USART2_IRQHandler                                 ./ZHONX_III/Drivers/CMSIS/Device/ST/STM32F4xx/Source/Templates/gcc/startup_stm32f405xx.o
USART3_IRQHandler                                 ./ZHONX_III/Drivers/CMSIS/Device/ST/STM32F4xx/Source/Templates/gcc/startup_stm32f405xx.o
USART6_IRQHandler                                 ./ZHONX_III/Drivers/CMSIS/Device/ST/STM32F4xx/Source/Templates/gcc/startup_stm32f405xx.o
UsageFault_Handler                                ./ZHONX_III/Drivers/CMSIS/Device/ST/STM32F4xx/Source/Templates/gcc/startup_stm32f405xx.o
WWDG_IRQHandler                                   ./ZHONX_III/Drivers/CMSIS/Device/ST/STM32F4xx/Source/Templates/gcc/startup_stm32f405xx.o
_Balloc                                           c:/eclipse-arm/gcc-4_8-2014/bin/../lib/gcc/arm-none-eabi/4.8.4/../../../../arm-none-eabi/lib/armv7e-m/fpu\libg.a(lib_a-mprec.o)
                                                  c:/eclipse-arm/gcc-4_8-2014/bin/../lib/gcc/arm-none-eabi/4.8.4/../../../../arm-none-eabi/lib/armv7e-m/fpu\libg.a(lib_a-dtoa.o)
_Bfree                                            c:/eclipse-arm/gcc-4_8-2014/bin/../lib/gcc/arm-none-eabi/4.8.4/../../../../arm-none-eabi/lib/armv7e-m/fpu\libg.a(lib_a-mprec.o)
                                                  c:/eclipse-arm/gcc-4_8-2014/bin/../lib/gcc/arm-none-eabi/4.8.4/../../../../arm-none-eabi/lib/armv7e-m/fpu\libg.a(lib_a-dtoa.o)
_Jv_RegisterClasses                               c:/eclipse-arm/gcc-4_8-2014/bin/../lib/gcc/arm-none-eabi/4.8.4/armv7e-m/fpu/crtbegin.o
_PathLocale                                       c:/eclipse-arm/gcc-4_8-2014/bin/../lib/gcc/arm-none-eabi/4.8.4/../../../../arm-none-eabi/lib/armv7e-m/fpu\libg.a(lib_a-locale.o)
__adddf3                                          c:/eclipse-arm/gcc-4_8-2014/bin/../lib/gcc/arm-none-eabi/4.8.4/armv7e-m/fpu\libgcc.a(_arm_addsubdf3.o)
__aeabi_cdcmpeq                                   c:/eclipse-arm/gcc-4_8-2014/bin/../lib/gcc/arm-none-eabi/4.8.4/armv7e-m/fpu\libgcc.a(_arm_cmpdf2.o)
__aeabi_cdcmple                                   c:/eclipse-arm/gcc-4_8-2014/bin/../lib/gcc/arm-none-eabi/4.8.4/armv7e-m/fpu\libgcc.a(_arm_cmpdf2.o)
__aeabi_cdrcmple                                  c:/eclipse-arm/gcc-4_8-2014/bin/../lib/gcc/arm-none-eabi/4.8.4/armv7e-m/fpu\libgcc.a(_arm_cmpdf2.o)
__aeabi_d2f                                       c:/eclipse-arm/gcc-4_8-2014/bin/../lib/gcc/arm-none-eabi/4.8.4/armv7e-m/fpu\libgcc.a(_arm_truncdfsf2.o)
                                                  ./ZHONX_III/Peripherals/Gyroscope/ADXRS620.o
__aeabi_d2iz                                      c:/eclipse-arm/gcc-4_8-2014/bin/../lib/gcc/arm-none-eabi/4.8.4/armv7e-m/fpu\libgcc.a(_arm_fixdfsi.o)
                                                  c:/eclipse-arm/gcc-4_8-2014/bin/../lib/gcc/arm-none-eabi/4.8.4/../../../../arm-none-eabi/lib/armv7e-m/fpu\libg.a(lib_a-dtoa.o)
                                                  ./ZHONX_III/Peripherals/Gyroscope/ADXRS620.o
__aeabi_dadd                                      c:/eclipse-arm/gcc-4_8-2014/bin/../lib/gcc/arm-none-eabi/4.8.4/armv7e-m/fpu\libgcc.a(_arm_addsubdf3.o)
                                                  c:/eclipse-arm/gcc-4_8-2014/bin/../lib/gcc/arm-none-eabi/4.8.4/../../../../arm-none-eabi/lib/armv7e-m/fpu\libg.a(lib_a-dtoa.o)
                                                  ./ZHONX_III/Peripherals/Gyroscope/ADXRS620.o
__aeabi_dcmpeq                                    c:/eclipse-arm/gcc-4_8-2014/bin/../lib/gcc/arm-none-eabi/4.8.4/armv7e-m/fpu\libgcc.a(_arm_cmpdf2.o)
                                                  c:/eclipse-arm/gcc-4_8-2014/bin/../lib/gcc/arm-none-eabi/4.8.4/../../../../arm-none-eabi/lib/armv7e-m/fpu\libg.a(lib_a-dtoa.o)
                                                  c:/eclipse-arm/gcc-4_8-2014/bin/../lib/gcc/arm-none-eabi/4.8.4/../../../../arm-none-eabi/lib/armv7e-m/fpu\libg.a(lib_a-svfprintf.o)
__aeabi_dcmpge                                    c:/eclipse-arm/gcc-4_8-2014/bin/../lib/gcc/arm-none-eabi/4.8.4/armv7e-m/fpu\libgcc.a(_arm_cmpdf2.o)
                                                  c:/eclipse-arm/gcc-4_8-2014/bin/../lib/gcc/arm-none-eabi/4.8.4/../../../../arm-none-eabi/lib/armv7e-m/fpu\libg.a(lib_a-dtoa.o)
__aeabi_dcmpgt                                    c:/eclipse-arm/gcc-4_8-2014/bin/../lib/gcc/arm-none-eabi/4.8.4/armv7e-m/fpu\libgcc.a(_arm_cmpdf2.o)
                                                  c:/eclipse-arm/gcc-4_8-2014/bin/../lib/gcc/arm-none-eabi/4.8.4/../../../../arm-none-eabi/lib/armv7e-m/fpu\libg.a(lib_a-dtoa.o)
__aeabi_dcmple                                    c:/eclipse-arm/gcc-4_8-2014/bin/../lib/gcc/arm-none-eabi/4.8.4/armv7e-m/fpu\libgcc.a(_arm_cmpdf2.o)
__aeabi_dcmplt                                    c:/eclipse-arm/gcc-4_8-2014/bin/../lib/gcc/arm-none-eabi/4.8.4/armv7e-m/fpu\libgcc.a(_arm_cmpdf2.o)
                                                  c:/eclipse-arm/gcc-4_8-2014/bin/../lib/gcc/arm-none-eabi/4.8.4/../../../../arm-none-eabi/lib/armv7e-m/fpu\libg.a(lib_a-dtoa.o)
                                                  c:/eclipse-arm/gcc-4_8-2014/bin/../lib/gcc/arm-none-eabi/4.8.4/../../../../arm-none-eabi/lib/armv7e-m/fpu\libg.a(lib_a-svfprintf.o)
__aeabi_ddiv                                      c:/eclipse-arm/gcc-4_8-2014/bin/../lib/gcc/arm-none-eabi/4.8.4/armv7e-m/fpu\libgcc.a(_arm_muldivdf3.o)
                                                  c:/eclipse-arm/gcc-4_8-2014/bin/../lib/gcc/arm-none-eabi/4.8.4/../../../../arm-none-eabi/lib/armv7e-m/fpu\libg.a(lib_a-mprec.o)
                                                  c:/eclipse-arm/gcc-4_8-2014/bin/../lib/gcc/arm-none-eabi/4.8.4/../../../../arm-none-eabi/lib/armv7e-m/fpu\libg.a(lib_a-dtoa.o)
                                                  ./ZHONX_III/Peripherals/Gyroscope/ADXRS620.o
__aeabi_dmul                                      c:/eclipse-arm/gcc-4_8-2014/bin/../lib/gcc/arm-none-eabi/4.8.4/armv7e-m/fpu\libgcc.a(_arm_muldivdf3.o)
                                                  c:/eclipse-arm/gcc-4_8-2014/bin/../lib/gcc/arm-none-eabi/4.8.4/../../../../arm-none-eabi/lib/armv7e-m/fpu\libg.a(lib_a-mprec.o)
                                                  c:/eclipse-arm/gcc-4_8-2014/bin/../lib/gcc/arm-none-eabi/4.8.4/../../../../arm-none-eabi/lib/armv7e-m/fpu\libg.a(lib_a-dtoa.o)
                                                  ./ZHONX_III/Peripherals/Gyroscope/ADXRS620.o
__aeabi_drsub                                     c:/eclipse-arm/gcc-4_8-2014/bin/../lib/gcc/arm-none-eabi/4.8.4/armv7e-m/fpu\libgcc.a(_arm_addsubdf3.o)
__aeabi_dsub                                      c:/eclipse-arm/gcc-4_8-2014/bin/../lib/gcc/arm-none-eabi/4.8.4/armv7e-m/fpu\libgcc.a(_arm_addsubdf3.o)
                                                  c:/eclipse-arm/gcc-4_8-2014/bin/../lib/gcc/arm-none-eabi/4.8.4/../../../../arm-none-eabi/lib/armv7e-m/fpu\libg.a(lib_a-dtoa.o)
                                                  ./ZHONX_III/Peripherals/Gyroscope/ADXRS620.o
__aeabi_f2d                                       c:/eclipse-arm/gcc-4_8-2014/bin/../lib/gcc/arm-none-eabi/4.8.4/armv7e-m/fpu\libgcc.a(_arm_addsubdf3.o)
                                                  ./ZHONX_III/Peripherals/Gyroscope/ADXRS620.o
__aeabi_i2d                                       c:/eclipse-arm/gcc-4_8-2014/bin/../lib/gcc/arm-none-eabi/4.8.4/armv7e-m/fpu\libgcc.a(_arm_addsubdf3.o)
                                                  c:/eclipse-arm/gcc-4_8-2014/bin/../lib/gcc/arm-none-eabi/4.8.4/../../../../arm-none-eabi/lib/armv7e-m/fpu\libg.a(lib_a-dtoa.o)
                                                  ./ZHONX_III/Peripherals/Gyroscope/ADXRS620.o
__aeabi_idiv0                                     c:/eclipse-arm/gcc-4_8-2014/bin/../lib/gcc/arm-none-eabi/4.8.4/armv7e-m/fpu\libgcc.a(_dvmd_tls.o)
__aeabi_l2d                                       c:/eclipse-arm/gcc-4_8-2014/bin/../lib/gcc/arm-none-eabi/4.8.4/armv7e-m/fpu\libgcc.a(_arm_addsubdf3.o)
__aeabi_ldiv0                                     c:/eclipse-arm/gcc-4_8-2014/bin/../lib/gcc/arm-none-eabi/4.8.4/armv7e-m/fpu\libgcc.a(_dvmd_tls.o)
                                                  c:/eclipse-arm/gcc-4_8-2014/bin/../lib/gcc/arm-none-eabi/4.8.4/armv7e-m/fpu\libgcc.a(_aeabi_uldivmod.o)
__aeabi_ui2d                                      c:/eclipse-arm/gcc-4_8-2014/bin/../lib/gcc/arm-none-eabi/4.8.4/armv7e-m/fpu\libgcc.a(_arm_addsubdf3.o)
                                                  c:/eclipse-arm/gcc-4_8-2014/bin/../lib/gcc/arm-none-eabi/4.8.4/../../../../arm-none-eabi/lib/armv7e-m/fpu\libg.a(lib_a-dtoa.o)
__aeabi_ul2d                                      c:/eclipse-arm/gcc-4_8-2014/bin/../lib/gcc/arm-none-eabi/4.8.4/armv7e-m/fpu\libgcc.a(_arm_addsubdf3.o)
__aeabi_uldivmod                                  c:/eclipse-arm/gcc-4_8-2014/bin/../lib/gcc/arm-none-eabi/4.8.4/armv7e-m/fpu\libgcc.a(_aeabi_uldivmod.o)
                                                  c:/eclipse-arm/gcc-4_8-2014/bin/../lib/gcc/arm-none-eabi/4.8.4/../../../../arm-none-eabi/lib/armv7e-m/fpu\libg.a(lib_a-svfiprintf.o)
                                                  c:/eclipse-arm/gcc-4_8-2014/bin/../lib/gcc/arm-none-eabi/4.8.4/../../../../arm-none-eabi/lib/armv7e-m/fpu\libg.a(lib_a-svfprintf.o)
__any_on                                          c:/eclipse-arm/gcc-4_8-2014/bin/../lib/gcc/arm-none-eabi/4.8.4/../../../../arm-none-eabi/lib/armv7e-m/fpu\libg.a(lib_a-mprec.o)
__b2d                                             c:/eclipse-arm/gcc-4_8-2014/bin/../lib/gcc/arm-none-eabi/4.8.4/../../../../arm-none-eabi/lib/armv7e-m/fpu\libg.a(lib_a-mprec.o)
__bss_end__                                       c:/eclipse-arm/gcc-4_8-2014/bin/../lib/gcc/arm-none-eabi/4.8.4/../../../../arm-none-eabi/lib/armv7e-m/fpu/crt0.o
__bss_start__                                     c:/eclipse-arm/gcc-4_8-2014/bin/../lib/gcc/arm-none-eabi/4.8.4/../../../../arm-none-eabi/lib/armv7e-m/fpu/crt0.o
__call_exitprocs                                  c:/eclipse-arm/gcc-4_8-2014/bin/../lib/gcc/arm-none-eabi/4.8.4/../../../../arm-none-eabi/lib/armv7e-m/fpu\libg.a(lib_a-__call_atexit.o)
                                                  c:/eclipse-arm/gcc-4_8-2014/bin/../lib/gcc/arm-none-eabi/4.8.4/../../../../arm-none-eabi/lib/armv7e-m/fpu\libg.a(lib_a-exit.o)
__cmpdf2                                          c:/eclipse-arm/gcc-4_8-2014/bin/../lib/gcc/arm-none-eabi/4.8.4/armv7e-m/fpu\libgcc.a(_arm_cmpdf2.o)
__copybits                                        c:/eclipse-arm/gcc-4_8-2014/bin/../lib/gcc/arm-none-eabi/4.8.4/../../../../arm-none-eabi/lib/armv7e-m/fpu\libg.a(lib_a-mprec.o)
__d2b                                             c:/eclipse-arm/gcc-4_8-2014/bin/../lib/gcc/arm-none-eabi/4.8.4/../../../../arm-none-eabi/lib/armv7e-m/fpu\libg.a(lib_a-mprec.o)
                                                  c:/eclipse-arm/gcc-4_8-2014/bin/../lib/gcc/arm-none-eabi/4.8.4/../../../../arm-none-eabi/lib/armv7e-m/fpu\libg.a(lib_a-dtoa.o)
__deregister_frame_info                           c:/eclipse-arm/gcc-4_8-2014/bin/../lib/gcc/arm-none-eabi/4.8.4/armv7e-m/fpu/crtbegin.o
__divdf3                                          c:/eclipse-arm/gcc-4_8-2014/bin/../lib/gcc/arm-none-eabi/4.8.4/armv7e-m/fpu\libgcc.a(_arm_muldivdf3.o)
__divdi3                                          c:/eclipse-arm/gcc-4_8-2014/bin/../lib/gcc/arm-none-eabi/4.8.4/armv7e-m/fpu\libgcc.a(_divdi3.o)
                                                  c:/eclipse-arm/gcc-4_8-2014/bin/../lib/gcc/arm-none-eabi/4.8.4/armv7e-m/fpu\libgcc.a(bpabi.o)
__dso_handle                                      c:/eclipse-arm/gcc-4_8-2014/bin/../lib/gcc/arm-none-eabi/4.8.4/armv7e-m/fpu/crtbegin.o
__env                                             ./ZHONX_III/Src/syscalls.o
__eqdf2                                           c:/eclipse-arm/gcc-4_8-2014/bin/../lib/gcc/arm-none-eabi/4.8.4/armv7e-m/fpu\libgcc.a(_arm_cmpdf2.o)
__extendsfdf2                                     c:/eclipse-arm/gcc-4_8-2014/bin/../lib/gcc/arm-none-eabi/4.8.4/armv7e-m/fpu\libgcc.a(_arm_addsubdf3.o)
__fini_array_end                                  c:/eclipse-arm/gcc-4_8-2014/bin/../lib/gcc/arm-none-eabi/4.8.4/../../../../arm-none-eabi/lib/armv7e-m/fpu\libg.a(lib_a-fini.o)
__fini_array_start                                c:/eclipse-arm/gcc-4_8-2014/bin/../lib/gcc/arm-none-eabi/4.8.4/../../../../arm-none-eabi/lib/armv7e-m/fpu\libg.a(lib_a-fini.o)
__fixdfsi                                         c:/eclipse-arm/gcc-4_8-2014/bin/../lib/gcc/arm-none-eabi/4.8.4/armv7e-m/fpu\libgcc.a(_arm_fixdfsi.o)
__floatdidf                                       c:/eclipse-arm/gcc-4_8-2014/bin/../lib/gcc/arm-none-eabi/4.8.4/armv7e-m/fpu\libgcc.a(_arm_addsubdf3.o)
__floatsidf                                       c:/eclipse-arm/gcc-4_8-2014/bin/../lib/gcc/arm-none-eabi/4.8.4/armv7e-m/fpu\libgcc.a(_arm_addsubdf3.o)
__floatundidf                                     c:/eclipse-arm/gcc-4_8-2014/bin/../lib/gcc/arm-none-eabi/4.8.4/armv7e-m/fpu\libgcc.a(_arm_addsubdf3.o)
__floatunsidf                                     c:/eclipse-arm/gcc-4_8-2014/bin/../lib/gcc/arm-none-eabi/4.8.4/armv7e-m/fpu\libgcc.a(_arm_addsubdf3.o)
__fpclassifyd                                     c:/eclipse-arm/gcc-4_8-2014/bin/../lib/gcc/arm-none-eabi/4.8.4/../../../../arm-none-eabi/lib/armv7e-m/fpu\libg.a(lib_a-s_fpclassify.o)
                                                  c:/eclipse-arm/gcc-4_8-2014/bin/../lib/gcc/arm-none-eabi/4.8.4/../../../../arm-none-eabi/lib/armv7e-m/fpu\libg.a(lib_a-svfprintf.o)
__gedf2                                           c:/eclipse-arm/gcc-4_8-2014/bin/../lib/gcc/arm-none-eabi/4.8.4/armv7e-m/fpu\libgcc.a(_arm_cmpdf2.o)
__gnu_ldivmod_helper                              c:/eclipse-arm/gcc-4_8-2014/bin/../lib/gcc/arm-none-eabi/4.8.4/armv7e-m/fpu\libgcc.a(bpabi.o)
__gnu_uldivmod_helper                             c:/eclipse-arm/gcc-4_8-2014/bin/../lib/gcc/arm-none-eabi/4.8.4/armv7e-m/fpu\libgcc.a(bpabi.o)
                                                  c:/eclipse-arm/gcc-4_8-2014/bin/../lib/gcc/arm-none-eabi/4.8.4/armv7e-m/fpu\libgcc.a(_aeabi_uldivmod.o)
__gtdf2                                           c:/eclipse-arm/gcc-4_8-2014/bin/../lib/gcc/arm-none-eabi/4.8.4/armv7e-m/fpu\libgcc.a(_arm_cmpdf2.o)
__hi0bits                                         c:/eclipse-arm/gcc-4_8-2014/bin/../lib/gcc/arm-none-eabi/4.8.4/../../../../arm-none-eabi/lib/armv7e-m/fpu\libg.a(lib_a-mprec.o)
                                                  c:/eclipse-arm/gcc-4_8-2014/bin/../lib/gcc/arm-none-eabi/4.8.4/../../../../arm-none-eabi/lib/armv7e-m/fpu\libg.a(lib_a-dtoa.o)
__i2b                                             c:/eclipse-arm/gcc-4_8-2014/bin/../lib/gcc/arm-none-eabi/4.8.4/../../../../arm-none-eabi/lib/armv7e-m/fpu\libg.a(lib_a-mprec.o)
                                                  c:/eclipse-arm/gcc-4_8-2014/bin/../lib/gcc/arm-none-eabi/4.8.4/../../../../arm-none-eabi/lib/armv7e-m/fpu\libg.a(lib_a-dtoa.o)
__init_array_end                                  c:/eclipse-arm/gcc-4_8-2014/bin/../lib/gcc/arm-none-eabi/4.8.4/../../../../arm-none-eabi/lib/armv7e-m/fpu\libg.a(lib_a-init.o)
__init_array_start                                c:/eclipse-arm/gcc-4_8-2014/bin/../lib/gcc/arm-none-eabi/4.8.4/../../../../arm-none-eabi/lib/armv7e-m/fpu\libg.a(lib_a-init.o)
__io_getchar                                      ./ZHONX_III/Src/syscalls.o
__io_putchar                                      ./ZHONX_III/Src/syscalls.o
__ledf2                                           c:/eclipse-arm/gcc-4_8-2014/bin/../lib/gcc/arm-none-eabi/4.8.4/armv7e-m/fpu\libgcc.a(_arm_cmpdf2.o)
__libc_fini                                       c:/eclipse-arm/gcc-4_8-2014/bin/../lib/gcc/arm-none-eabi/4.8.4/../../../../arm-none-eabi/lib/armv7e-m/fpu\libg.a(lib_a-__call_atexit.o)
__libc_fini_array                                 c:/eclipse-arm/gcc-4_8-2014/bin/../lib/gcc/arm-none-eabi/4.8.4/../../../../arm-none-eabi/lib/armv7e-m/fpu\libg.a(lib_a-fini.o)
                                                  c:/eclipse-arm/gcc-4_8-2014/bin/../lib/gcc/arm-none-eabi/4.8.4/../../../../arm-none-eabi/lib/armv7e-m/fpu\libg.a(lib_a-__call_atexit.o)
                                                  c:/eclipse-arm/gcc-4_8-2014/bin/../lib/gcc/arm-none-eabi/4.8.4/../../../../arm-none-eabi/lib/armv7e-m/fpu/crt0.o
__libc_init_array                                 c:/eclipse-arm/gcc-4_8-2014/bin/../lib/gcc/arm-none-eabi/4.8.4/../../../../arm-none-eabi/lib/armv7e-m/fpu\libg.a(lib_a-init.o)
                                                  ./ZHONX_III/Drivers/CMSIS/Device/ST/STM32F4xx/Source/Templates/gcc/startup_stm32f405xx.o
                                                  c:/eclipse-arm/gcc-4_8-2014/bin/../lib/gcc/arm-none-eabi/4.8.4/../../../../arm-none-eabi/lib/armv7e-m/fpu/crt0.o
__lo0bits                                         c:/eclipse-arm/gcc-4_8-2014/bin/../lib/gcc/arm-none-eabi/4.8.4/../../../../arm-none-eabi/lib/armv7e-m/fpu\libg.a(lib_a-mprec.o)
__locale_charset                                  c:/eclipse-arm/gcc-4_8-2014/bin/../lib/gcc/arm-none-eabi/4.8.4/../../../../arm-none-eabi/lib/armv7e-m/fpu\libg.a(lib_a-locale.o)
__locale_cjk_lang                                 c:/eclipse-arm/gcc-4_8-2014/bin/../lib/gcc/arm-none-eabi/4.8.4/../../../../arm-none-eabi/lib/armv7e-m/fpu\libg.a(lib_a-locale.o)
__locale_mb_cur_max                               c:/eclipse-arm/gcc-4_8-2014/bin/../lib/gcc/arm-none-eabi/4.8.4/../../../../arm-none-eabi/lib/armv7e-m/fpu\libg.a(lib_a-locale.o)
__locale_msgcharset                               c:/eclipse-arm/gcc-4_8-2014/bin/../lib/gcc/arm-none-eabi/4.8.4/../../../../arm-none-eabi/lib/armv7e-m/fpu\libg.a(lib_a-locale.o)
__lshift                                          c:/eclipse-arm/gcc-4_8-2014/bin/../lib/gcc/arm-none-eabi/4.8.4/../../../../arm-none-eabi/lib/armv7e-m/fpu\libg.a(lib_a-mprec.o)
                                                  c:/eclipse-arm/gcc-4_8-2014/bin/../lib/gcc/arm-none-eabi/4.8.4/../../../../arm-none-eabi/lib/armv7e-m/fpu\libg.a(lib_a-dtoa.o)
__ltdf2                                           c:/eclipse-arm/gcc-4_8-2014/bin/../lib/gcc/arm-none-eabi/4.8.4/armv7e-m/fpu\libgcc.a(_arm_cmpdf2.o)
__malloc_av_                                      c:/eclipse-arm/gcc-4_8-2014/bin/../lib/gcc/arm-none-eabi/4.8.4/../../../../arm-none-eabi/lib/armv7e-m/fpu\libg.a(lib_a-mallocr.o)
                                                  c:/eclipse-arm/gcc-4_8-2014/bin/../lib/gcc/arm-none-eabi/4.8.4/../../../../arm-none-eabi/lib/armv7e-m/fpu\libg.a(lib_a-reallocr.o)
                                                  c:/eclipse-arm/gcc-4_8-2014/bin/../lib/gcc/arm-none-eabi/4.8.4/../../../../arm-none-eabi/lib/armv7e-m/fpu\libg.a(lib_a-freer.o)
__malloc_current_mallinfo                         c:/eclipse-arm/gcc-4_8-2014/bin/../lib/gcc/arm-none-eabi/4.8.4/../../../../arm-none-eabi/lib/armv7e-m/fpu\libg.a(lib_a-mallocr.o)
                                                  c:/eclipse-arm/gcc-4_8-2014/bin/../lib/gcc/arm-none-eabi/4.8.4/../../../../arm-none-eabi/lib/armv7e-m/fpu\libg.a(lib_a-freer.o)
__malloc_lock                                     c:/eclipse-arm/gcc-4_8-2014/bin/../lib/gcc/arm-none-eabi/4.8.4/../../../../arm-none-eabi/lib/armv7e-m/fpu\libg.a(lib_a-mlock.o)
                                                  c:/eclipse-arm/gcc-4_8-2014/bin/../lib/gcc/arm-none-eabi/4.8.4/../../../../arm-none-eabi/lib/armv7e-m/fpu\libg.a(lib_a-reallocr.o)
                                                  c:/eclipse-arm/gcc-4_8-2014/bin/../lib/gcc/arm-none-eabi/4.8.4/../../../../arm-none-eabi/lib/armv7e-m/fpu\libg.a(lib_a-mallocr.o)
                                                  c:/eclipse-arm/gcc-4_8-2014/bin/../lib/gcc/arm-none-eabi/4.8.4/../../../../arm-none-eabi/lib/armv7e-m/fpu\libg.a(lib_a-freer.o)
__malloc_max_sbrked_mem                           c:/eclipse-arm/gcc-4_8-2014/bin/../lib/gcc/arm-none-eabi/4.8.4/../../../../arm-none-eabi/lib/armv7e-m/fpu\libg.a(lib_a-mallocr.o)
__malloc_max_total_mem                            c:/eclipse-arm/gcc-4_8-2014/bin/../lib/gcc/arm-none-eabi/4.8.4/../../../../arm-none-eabi/lib/armv7e-m/fpu\libg.a(lib_a-mallocr.o)
__malloc_sbrk_base                                c:/eclipse-arm/gcc-4_8-2014/bin/../lib/gcc/arm-none-eabi/4.8.4/../../../../arm-none-eabi/lib/armv7e-m/fpu\libg.a(lib_a-mallocr.o)
                                                  c:/eclipse-arm/gcc-4_8-2014/bin/../lib/gcc/arm-none-eabi/4.8.4/../../../../arm-none-eabi/lib/armv7e-m/fpu\libg.a(lib_a-freer.o)
__malloc_top_pad                                  c:/eclipse-arm/gcc-4_8-2014/bin/../lib/gcc/arm-none-eabi/4.8.4/../../../../arm-none-eabi/lib/armv7e-m/fpu\libg.a(lib_a-mallocr.o)
                                                  c:/eclipse-arm/gcc-4_8-2014/bin/../lib/gcc/arm-none-eabi/4.8.4/../../../../arm-none-eabi/lib/armv7e-m/fpu\libg.a(lib_a-freer.o)
__malloc_trim_threshold                           c:/eclipse-arm/gcc-4_8-2014/bin/../lib/gcc/arm-none-eabi/4.8.4/../../../../arm-none-eabi/lib/armv7e-m/fpu\libg.a(lib_a-mallocr.o)
                                                  c:/eclipse-arm/gcc-4_8-2014/bin/../lib/gcc/arm-none-eabi/4.8.4/../../../../arm-none-eabi/lib/armv7e-m/fpu\libg.a(lib_a-freer.o)
__malloc_unlock                                   c:/eclipse-arm/gcc-4_8-2014/bin/../lib/gcc/arm-none-eabi/4.8.4/../../../../arm-none-eabi/lib/armv7e-m/fpu\libg.a(lib_a-mlock.o)
                                                  c:/eclipse-arm/gcc-4_8-2014/bin/../lib/gcc/arm-none-eabi/4.8.4/../../../../arm-none-eabi/lib/armv7e-m/fpu\libg.a(lib_a-reallocr.o)
                                                  c:/eclipse-arm/gcc-4_8-2014/bin/../lib/gcc/arm-none-eabi/4.8.4/../../../../arm-none-eabi/lib/armv7e-m/fpu\libg.a(lib_a-mallocr.o)
                                                  c:/eclipse-arm/gcc-4_8-2014/bin/../lib/gcc/arm-none-eabi/4.8.4/../../../../arm-none-eabi/lib/armv7e-m/fpu\libg.a(lib_a-freer.o)
__mb_cur_max                                      c:/eclipse-arm/gcc-4_8-2014/bin/../lib/gcc/arm-none-eabi/4.8.4/../../../../arm-none-eabi/lib/armv7e-m/fpu\libg.a(lib_a-locale.o)
__mcmp                                            c:/eclipse-arm/gcc-4_8-2014/bin/../lib/gcc/arm-none-eabi/4.8.4/../../../../arm-none-eabi/lib/armv7e-m/fpu\libg.a(lib_a-mprec.o)
                                                  c:/eclipse-arm/gcc-4_8-2014/bin/../lib/gcc/arm-none-eabi/4.8.4/../../../../arm-none-eabi/lib/armv7e-m/fpu\libg.a(lib_a-dtoa.o)
__mdiff                                           c:/eclipse-arm/gcc-4_8-2014/bin/../lib/gcc/arm-none-eabi/4.8.4/../../../../arm-none-eabi/lib/armv7e-m/fpu\libg.a(lib_a-mprec.o)
                                                  c:/eclipse-arm/gcc-4_8-2014/bin/../lib/gcc/arm-none-eabi/4.8.4/../../../../arm-none-eabi/lib/armv7e-m/fpu\libg.a(lib_a-dtoa.o)
__mlocale_changed                                 c:/eclipse-arm/gcc-4_8-2014/bin/../lib/gcc/arm-none-eabi/4.8.4/../../../../arm-none-eabi/lib/armv7e-m/fpu\libg.a(lib_a-locale.o)
__mprec_bigtens                                   c:/eclipse-arm/gcc-4_8-2014/bin/../lib/gcc/arm-none-eabi/4.8.4/../../../../arm-none-eabi/lib/armv7e-m/fpu\libg.a(lib_a-mprec.o)
                                                  c:/eclipse-arm/gcc-4_8-2014/bin/../lib/gcc/arm-none-eabi/4.8.4/../../../../arm-none-eabi/lib/armv7e-m/fpu\libg.a(lib_a-dtoa.o)
__mprec_tens                                      c:/eclipse-arm/gcc-4_8-2014/bin/../lib/gcc/arm-none-eabi/4.8.4/../../../../arm-none-eabi/lib/armv7e-m/fpu\libg.a(lib_a-mprec.o)
                                                  c:/eclipse-arm/gcc-4_8-2014/bin/../lib/gcc/arm-none-eabi/4.8.4/../../../../arm-none-eabi/lib/armv7e-m/fpu\libg.a(lib_a-dtoa.o)
__mprec_tinytens                                  c:/eclipse-arm/gcc-4_8-2014/bin/../lib/gcc/arm-none-eabi/4.8.4/../../../../arm-none-eabi/lib/armv7e-m/fpu\libg.a(lib_a-mprec.o)
__muldf3                                          c:/eclipse-arm/gcc-4_8-2014/bin/../lib/gcc/arm-none-eabi/4.8.4/armv7e-m/fpu\libgcc.a(_arm_muldivdf3.o)
__multadd                                         c:/eclipse-arm/gcc-4_8-2014/bin/../lib/gcc/arm-none-eabi/4.8.4/../../../../arm-none-eabi/lib/armv7e-m/fpu\libg.a(lib_a-mprec.o)
                                                  c:/eclipse-arm/gcc-4_8-2014/bin/../lib/gcc/arm-none-eabi/4.8.4/../../../../arm-none-eabi/lib/armv7e-m/fpu\libg.a(lib_a-dtoa.o)
__multiply                                        c:/eclipse-arm/gcc-4_8-2014/bin/../lib/gcc/arm-none-eabi/4.8.4/../../../../arm-none-eabi/lib/armv7e-m/fpu\libg.a(lib_a-mprec.o)
                                                  c:/eclipse-arm/gcc-4_8-2014/bin/../lib/gcc/arm-none-eabi/4.8.4/../../../../arm-none-eabi/lib/armv7e-m/fpu\libg.a(lib_a-dtoa.o)
__nedf2                                           c:/eclipse-arm/gcc-4_8-2014/bin/../lib/gcc/arm-none-eabi/4.8.4/armv7e-m/fpu\libgcc.a(_arm_cmpdf2.o)
__nlocale_changed                                 c:/eclipse-arm/gcc-4_8-2014/bin/../lib/gcc/arm-none-eabi/4.8.4/../../../../arm-none-eabi/lib/armv7e-m/fpu\libg.a(lib_a-locale.o)
__pow5mult                                        c:/eclipse-arm/gcc-4_8-2014/bin/../lib/gcc/arm-none-eabi/4.8.4/../../../../arm-none-eabi/lib/armv7e-m/fpu\libg.a(lib_a-mprec.o)
                                                  c:/eclipse-arm/gcc-4_8-2014/bin/../lib/gcc/arm-none-eabi/4.8.4/../../../../arm-none-eabi/lib/armv7e-m/fpu\libg.a(lib_a-dtoa.o)
__preinit_array_end                               c:/eclipse-arm/gcc-4_8-2014/bin/../lib/gcc/arm-none-eabi/4.8.4/../../../../arm-none-eabi/lib/armv7e-m/fpu\libg.a(lib_a-init.o)
__preinit_array_start                             c:/eclipse-arm/gcc-4_8-2014/bin/../lib/gcc/arm-none-eabi/4.8.4/../../../../arm-none-eabi/lib/armv7e-m/fpu\libg.a(lib_a-init.o)
__ratio                                           c:/eclipse-arm/gcc-4_8-2014/bin/../lib/gcc/arm-none-eabi/4.8.4/../../../../arm-none-eabi/lib/armv7e-m/fpu\libg.a(lib_a-mprec.o)
__register_exitproc                               c:/eclipse-arm/gcc-4_8-2014/bin/../lib/gcc/arm-none-eabi/4.8.4/../../../../arm-none-eabi/lib/armv7e-m/fpu\libg.a(lib_a-__atexit.o)
                                                  c:/eclipse-arm/gcc-4_8-2014/bin/../lib/gcc/arm-none-eabi/4.8.4/../../../../arm-none-eabi/lib/armv7e-m/fpu\libg.a(lib_a-atexit.o)
__register_frame_info                             c:/eclipse-arm/gcc-4_8-2014/bin/../lib/gcc/arm-none-eabi/4.8.4/armv7e-m/fpu/crtbegin.o
__s2b                                             c:/eclipse-arm/gcc-4_8-2014/bin/../lib/gcc/arm-none-eabi/4.8.4/../../../../arm-none-eabi/lib/armv7e-m/fpu\libg.a(lib_a-mprec.o)
__ssprint_r                                       c:/eclipse-arm/gcc-4_8-2014/bin/../lib/gcc/arm-none-eabi/4.8.4/../../../../arm-none-eabi/lib/armv7e-m/fpu\libg.a(lib_a-svfiprintf.o)
                                                  c:/eclipse-arm/gcc-4_8-2014/bin/../lib/gcc/arm-none-eabi/4.8.4/../../../../arm-none-eabi/lib/armv7e-m/fpu\libg.a(lib_a-svfprintf.o)
__stack                                           c:/eclipse-arm/gcc-4_8-2014/bin/../lib/gcc/arm-none-eabi/4.8.4/../../../../arm-none-eabi/lib/armv7e-m/fpu/crt0.o
__subdf3                                          c:/eclipse-arm/gcc-4_8-2014/bin/../lib/gcc/arm-none-eabi/4.8.4/armv7e-m/fpu\libgcc.a(_arm_addsubdf3.o)
__truncdfsf2                                      c:/eclipse-arm/gcc-4_8-2014/bin/../lib/gcc/arm-none-eabi/4.8.4/armv7e-m/fpu\libgcc.a(_arm_truncdfsf2.o)
__udivdi3                                         c:/eclipse-arm/gcc-4_8-2014/bin/../lib/gcc/arm-none-eabi/4.8.4/armv7e-m/fpu\libgcc.a(_udivdi3.o)
                                                  c:/eclipse-arm/gcc-4_8-2014/bin/../lib/gcc/arm-none-eabi/4.8.4/armv7e-m/fpu\libgcc.a(bpabi.o)
__ulp                                             c:/eclipse-arm/gcc-4_8-2014/bin/../lib/gcc/arm-none-eabi/4.8.4/../../../../arm-none-eabi/lib/armv7e-m/fpu\libg.a(lib_a-mprec.o)
_calloc_r                                         c:/eclipse-arm/gcc-4_8-2014/bin/../lib/gcc/arm-none-eabi/4.8.4/../../../../arm-none-eabi/lib/armv7e-m/fpu\libg.a(lib_a-callocr.o)
                                                  c:/eclipse-arm/gcc-4_8-2014/bin/../lib/gcc/arm-none-eabi/4.8.4/../../../../arm-none-eabi/lib/armv7e-m/fpu\libg.a(lib_a-mprec.o)
_close                                            ./ZHONX_III/Src/syscalls.o
_dtoa_r                                           c:/eclipse-arm/gcc-4_8-2014/bin/../lib/gcc/arm-none-eabi/4.8.4/../../../../arm-none-eabi/lib/armv7e-m/fpu\libg.a(lib_a-dtoa.o)
                                                  c:/eclipse-arm/gcc-4_8-2014/bin/../lib/gcc/arm-none-eabi/4.8.4/../../../../arm-none-eabi/lib/armv7e-m/fpu\libg.a(lib_a-svfprintf.o)
_ebss                                             ./ZHONX_III/Drivers/CMSIS/Device/ST/STM32F4xx/Source/Templates/gcc/startup_stm32f405xx.o
_edata                                            ./ZHONX_III/Drivers/CMSIS/Device/ST/STM32F4xx/Source/Templates/gcc/startup_stm32f405xx.o
_estack                                           ./ZHONX_III/Drivers/CMSIS/Device/ST/STM32F4xx/Source/Templates/gcc/startup_stm32f405xx.o
_execve                                           ./ZHONX_III/Src/syscalls.o
_exit                                             ./ZHONX_III/Src/syscalls.o
                                                  c:/eclipse-arm/gcc-4_8-2014/bin/../lib/gcc/arm-none-eabi/4.8.4/../../../../arm-none-eabi/lib/armv7e-m/fpu\libg.a(lib_a-exit.o)
_fini                                             c:/eclipse-arm/gcc-4_8-2014/bin/../lib/gcc/arm-none-eabi/4.8.4/armv7e-m/fpu/crti.o
                                                  c:/eclipse-arm/gcc-4_8-2014/bin/../lib/gcc/arm-none-eabi/4.8.4/../../../../arm-none-eabi/lib/armv7e-m/fpu\libg.a(lib_a-fini.o)
_fork                                             ./ZHONX_III/Src/syscalls.o
_free_r                                           c:/eclipse-arm/gcc-4_8-2014/bin/../lib/gcc/arm-none-eabi/4.8.4/../../../../arm-none-eabi/lib/armv7e-m/fpu\libg.a(lib_a-freer.o)
                                                  c:/eclipse-arm/gcc-4_8-2014/bin/../lib/gcc/arm-none-eabi/4.8.4/../../../../arm-none-eabi/lib/armv7e-m/fpu\libg.a(lib_a-reallocr.o)
                                                  c:/eclipse-arm/gcc-4_8-2014/bin/../lib/gcc/arm-none-eabi/4.8.4/../../../../arm-none-eabi/lib/armv7e-m/fpu\libg.a(lib_a-svfiprintf.o)
                                                  c:/eclipse-arm/gcc-4_8-2014/bin/../lib/gcc/arm-none-eabi/4.8.4/../../../../arm-none-eabi/lib/armv7e-m/fpu\libg.a(lib_a-mallocr.o)
                                                  c:/eclipse-arm/gcc-4_8-2014/bin/../lib/gcc/arm-none-eabi/4.8.4/../../../../arm-none-eabi/lib/armv7e-m/fpu\libg.a(lib_a-reent.o)
_fstat                                            ./ZHONX_III/Src/syscalls.o
_getpid                                           ./ZHONX_III/Src/syscalls.o
_global_impure_ptr                                c:/eclipse-arm/gcc-4_8-2014/bin/../lib/gcc/arm-none-eabi/4.8.4/../../../../arm-none-eabi/lib/armv7e-m/fpu\libg.a(lib_a-impure.o)
                                                  c:/eclipse-arm/gcc-4_8-2014/bin/../lib/gcc/arm-none-eabi/4.8.4/../../../../arm-none-eabi/lib/armv7e-m/fpu\libg.a(lib_a-__atexit.o)
                                                  c:/eclipse-arm/gcc-4_8-2014/bin/../lib/gcc/arm-none-eabi/4.8.4/../../../../arm-none-eabi/lib/armv7e-m/fpu\libg.a(lib_a-__call_atexit.o)
                                                  c:/eclipse-arm/gcc-4_8-2014/bin/../lib/gcc/arm-none-eabi/4.8.4/../../../../arm-none-eabi/lib/armv7e-m/fpu\libg.a(lib_a-exit.o)
_impure_ptr                                       c:/eclipse-arm/gcc-4_8-2014/bin/../lib/gcc/arm-none-eabi/4.8.4/../../../../arm-none-eabi/lib/armv7e-m/fpu\libg.a(lib_a-impure.o)
                                                  c:/eclipse-arm/gcc-4_8-2014/bin/../lib/gcc/arm-none-eabi/4.8.4/../../../../arm-none-eabi/lib/armv7e-m/fpu\libg.a(lib_a-locale.o)
                                                  c:/eclipse-arm/gcc-4_8-2014/bin/../lib/gcc/arm-none-eabi/4.8.4/../../../../arm-none-eabi/lib/armv7e-m/fpu\libg.a(lib_a-sprintf.o)
                                                  c:/eclipse-arm/gcc-4_8-2014/bin/../lib/gcc/arm-none-eabi/4.8.4/../../../../arm-none-eabi/lib/armv7e-m/fpu\libg.a(lib_a-reent.o)
_init                                             c:/eclipse-arm/gcc-4_8-2014/bin/../lib/gcc/arm-none-eabi/4.8.4/armv7e-m/fpu/crti.o
                                                  c:/eclipse-arm/gcc-4_8-2014/bin/../lib/gcc/arm-none-eabi/4.8.4/../../../../arm-none-eabi/lib/armv7e-m/fpu\libg.a(lib_a-init.o)
_isatty                                           ./ZHONX_III/Src/syscalls.o
_kill                                             ./ZHONX_III/Src/syscalls.o
_link                                             ./ZHONX_III/Src/syscalls.o
_localeconv_r                                     c:/eclipse-arm/gcc-4_8-2014/bin/../lib/gcc/arm-none-eabi/4.8.4/../../../../arm-none-eabi/lib/armv7e-m/fpu\libg.a(lib_a-locale.o)
                                                  c:/eclipse-arm/gcc-4_8-2014/bin/../lib/gcc/arm-none-eabi/4.8.4/../../../../arm-none-eabi/lib/armv7e-m/fpu\libg.a(lib_a-svfprintf.o)
_lseek                                            ./ZHONX_III/Src/syscalls.o
_mainCRTStartup                                   c:/eclipse-arm/gcc-4_8-2014/bin/../lib/gcc/arm-none-eabi/4.8.4/../../../../arm-none-eabi/lib/armv7e-m/fpu/crt0.o
_malloc_r                                         c:/eclipse-arm/gcc-4_8-2014/bin/../lib/gcc/arm-none-eabi/4.8.4/../../../../arm-none-eabi/lib/armv7e-m/fpu\libg.a(lib_a-mallocr.o)
                                                  c:/eclipse-arm/gcc-4_8-2014/bin/../lib/gcc/arm-none-eabi/4.8.4/../../../../arm-none-eabi/lib/armv7e-m/fpu\libg.a(lib_a-reallocr.o)
                                                  c:/eclipse-arm/gcc-4_8-2014/bin/../lib/gcc/arm-none-eabi/4.8.4/../../../../arm-none-eabi/lib/armv7e-m/fpu\libg.a(lib_a-callocr.o)
                                                  c:/eclipse-arm/gcc-4_8-2014/bin/../lib/gcc/arm-none-eabi/4.8.4/../../../../arm-none-eabi/lib/armv7e-m/fpu\libg.a(lib_a-svfiprintf.o)
                                                  c:/eclipse-arm/gcc-4_8-2014/bin/../lib/gcc/arm-none-eabi/4.8.4/../../../../arm-none-eabi/lib/armv7e-m/fpu\libg.a(lib_a-svfprintf.o)
_malloc_trim_r                                    c:/eclipse-arm/gcc-4_8-2014/bin/../lib/gcc/arm-none-eabi/4.8.4/../../../../arm-none-eabi/lib/armv7e-m/fpu\libg.a(lib_a-freer.o)
_mprec_log10                                      c:/eclipse-arm/gcc-4_8-2014/bin/../lib/gcc/arm-none-eabi/4.8.4/../../../../arm-none-eabi/lib/armv7e-m/fpu\libg.a(lib_a-mprec.o)
_open                                             ./ZHONX_III/Src/syscalls.o
_read                                             ./ZHONX_III/Src/syscalls.o
_realloc_r                                        c:/eclipse-arm/gcc-4_8-2014/bin/../lib/gcc/arm-none-eabi/4.8.4/../../../../arm-none-eabi/lib/armv7e-m/fpu\libg.a(lib_a-reallocr.o)
                                                  c:/eclipse-arm/gcc-4_8-2014/bin/../lib/gcc/arm-none-eabi/4.8.4/../../../../arm-none-eabi/lib/armv7e-m/fpu\libg.a(lib_a-svfiprintf.o)
_reclaim_reent                                    c:/eclipse-arm/gcc-4_8-2014/bin/../lib/gcc/arm-none-eabi/4.8.4/../../../../arm-none-eabi/lib/armv7e-m/fpu\libg.a(lib_a-reent.o)
_sbrk                                             ./ZHONX_III/Src/syscalls.o
                                                  c:/eclipse-arm/gcc-4_8-2014/bin/../lib/gcc/arm-none-eabi/4.8.4/../../../../arm-none-eabi/lib/armv7e-m/fpu\libg.a(lib_a-sbrkr.o)
_sbrk_r                                           c:/eclipse-arm/gcc-4_8-2014/bin/../lib/gcc/arm-none-eabi/4.8.4/../../../../arm-none-eabi/lib/armv7e-m/fpu\libg.a(lib_a-sbrkr.o)
                                                  c:/eclipse-arm/gcc-4_8-2014/bin/../lib/gcc/arm-none-eabi/4.8.4/../../../../arm-none-eabi/lib/armv7e-m/fpu\libg.a(lib_a-mallocr.o)
                                                  c:/eclipse-arm/gcc-4_8-2014/bin/../lib/gcc/arm-none-eabi/4.8.4/../../../../arm-none-eabi/lib/armv7e-m/fpu\libg.a(lib_a-freer.o)
_sbss                                             ./ZHONX_III/Drivers/CMSIS/Device/ST/STM32F4xx/Source/Templates/gcc/startup_stm32f405xx.o
_sdata                                            ./ZHONX_III/Drivers/CMSIS/Device/ST/STM32F4xx/Source/Templates/gcc/startup_stm32f405xx.o
_setlocale_r                                      c:/eclipse-arm/gcc-4_8-2014/bin/../lib/gcc/arm-none-eabi/4.8.4/../../../../arm-none-eabi/lib/armv7e-m/fpu\libg.a(lib_a-locale.o)
_sidata                                           ./ZHONX_III/Drivers/CMSIS/Device/ST/STM32F4xx/Source/Templates/gcc/startup_stm32f405xx.o
_sprintf_r                                        c:/eclipse-arm/gcc-4_8-2014/bin/../lib/gcc/arm-none-eabi/4.8.4/../../../../arm-none-eabi/lib/armv7e-m/fpu\libg.a(lib_a-sprintf.o)
_start                                            c:/eclipse-arm/gcc-4_8-2014/bin/../lib/gcc/arm-none-eabi/4.8.4/../../../../arm-none-eabi/lib/armv7e-m/fpu/crt0.o
_stat                                             ./ZHONX_III/Src/syscalls.o
_svfiprintf_r                                     c:/eclipse-arm/gcc-4_8-2014/bin/../lib/gcc/arm-none-eabi/4.8.4/../../../../arm-none-eabi/lib/armv7e-m/fpu\libg.a(lib_a-svfiprintf.o)
_svfprintf_r                                      c:/eclipse-arm/gcc-4_8-2014/bin/../lib/gcc/arm-none-eabi/4.8.4/../../../../arm-none-eabi/lib/armv7e-m/fpu\libg.a(lib_a-svfprintf.o)
                                                  c:/eclipse-arm/gcc-4_8-2014/bin/../lib/gcc/arm-none-eabi/4.8.4/../../../../arm-none-eabi/lib/armv7e-m/fpu\libg.a(lib_a-sprintf.o)
_times                                            ./ZHONX_III/Src/syscalls.o
_unlink                                           ./ZHONX_III/Src/syscalls.o
_wait                                             ./ZHONX_III/Src/syscalls.o
_write                                            ./ZHONX_III/Src/syscalls.o
arm_pid_init_f32                                  ./ZHONX_III/DSP_lib/ControllerFunctions/arm_pid_init_f32.o
                                                  ./ZHONX_III/Enslavements/PID/PID.o
arm_pid_init_q15                                  ./ZHONX_III/DSP_lib/ControllerFunctions/arm_pid_init_q15.o
arm_pid_init_q31                                  ./ZHONX_III/DSP_lib/ControllerFunctions/arm_pid_init_q31.o
arm_pid_reset_f32                                 ./ZHONX_III/DSP_lib/ControllerFunctions/arm_pid_reset_f32.o
                                                  ./ZHONX_III/Enslavements/PID/PID.o
arm_pid_reset_q15                                 ./ZHONX_III/DSP_lib/ControllerFunctions/arm_pid_reset_q15.o
arm_pid_reset_q31                                 ./ZHONX_III/DSP_lib/ControllerFunctions/arm_pid_reset_q31.o
arm_sin_cos_f32                                   ./ZHONX_III/DSP_lib/ControllerFunctions/arm_sin_cos_f32.o
arm_sin_cos_q31                                   ./ZHONX_III/DSP_lib/ControllerFunctions/arm_sin_cos_q31.o
atexit                                            c:/eclipse-arm/gcc-4_8-2014/bin/../lib/gcc/arm-none-eabi/4.8.4/../../../../arm-none-eabi/lib/armv7e-m/fpu\libg.a(lib_a-atexit.o)
                                                  c:/eclipse-arm/gcc-4_8-2014/bin/../lib/gcc/arm-none-eabi/4.8.4/../../../../arm-none-eabi/lib/armv7e-m/fpu\libg.a(lib_a-__call_atexit.o)
                                                  c:/eclipse-arm/gcc-4_8-2014/bin/../lib/gcc/arm-none-eabi/4.8.4/../../../../arm-none-eabi/lib/armv7e-m/fpu/crt0.o
au8Font3x6                                        ./ZHONX_III/Peripherals/Display/src/smallfonts.o
au8Font5x8                                        ./ZHONX_III/Peripherals/Display/src/smallfonts.o
au8Font7x8                                        ./ZHONX_III/Peripherals/Display/src/smallfonts.o
au8Font8x8                                        ./ZHONX_III/Peripherals/Display/src/smallfonts.o
au8Font8x8Thin                                    ./ZHONX_III/Peripherals/Display/src/smallfonts.o
blink                                             ./ZHONX_III/Peripherals/Display/src/ssd1306.o
buffer                                            ./ZHONX_III/Peripherals/Display/src/ssd1306.o
cleanup_glue                                      c:/eclipse-arm/gcc-4_8-2014/bin/../lib/gcc/arm-none-eabi/4.8.4/../../../../arm-none-eabi/lib/armv7e-m/fpu\libg.a(lib_a-reent.o)
consigne                                          ./ZHONX_III/Enslavements/Straight_Controls/Straight_Controls.o
currentAngle                                      ./ZHONX_III/Peripherals/Tests/tests.o
end                                               ./ZHONX_III/Src/syscalls.o
environ                                           ./ZHONX_III/Src/syscalls.o
errno                                             c:/eclipse-arm/gcc-4_8-2014/bin/../lib/gcc/arm-none-eabi/4.8.4/../../../../arm-none-eabi/lib/armv7e-m/fpu\libg.a(lib_a-sbrkr.o)
                                                  c:/eclipse-arm/gcc-4_8-2014/bin/../lib/gcc/arm-none-eabi/4.8.4/../../../../arm-none-eabi/lib/armv7e-m/fpu\libg.a(lib_a-reent.o)
                                                  ./ZHONX_III/Src/syscalls.o
exit                                              c:/eclipse-arm/gcc-4_8-2014/bin/../lib/gcc/arm-none-eabi/4.8.4/../../../../arm-none-eabi/lib/armv7e-m/fpu\libg.a(lib_a-exit.o)
                                                  c:/eclipse-arm/gcc-4_8-2014/bin/../lib/gcc/arm-none-eabi/4.8.4/../../../../arm-none-eabi/lib/armv7e-m/fpu/crt0.o
free                                              c:/eclipse-arm/gcc-4_8-2014/bin/../lib/gcc/arm-none-eabi/4.8.4/../../../../arm-none-eabi/lib/armv7e-m/fpu\libg.a(lib_a-__call_atexit.o)
g_pfnVectors                                      ./ZHONX_III/Drivers/CMSIS/Device/ST/STM32F4xx/Source/Templates/gcc/startup_stm32f405xx.o
gyroRate                                          ./ZHONX_III/Peripherals/Tests/tests.o
gyro_Current_Angle                                ./ZHONX_III/Peripherals/Gyroscope/ADXRS620.o
                                                  ./ZHONX_III/Enslavements/Straight_Controls/Straight_Controls.o
                                                  ./ZHONX_III/Peripherals/Tests/tests.o
gyro_pid_instance                                 ./ZHONX_III/Enslavements/Straight_Controls/Straight_Controls.o
hadc1                                             ./ZHONX_III/Peripherals/Gyroscope/ADXRS620.o
                                                  ./ZHONX_III/Peripherals/Telemeters/Telemeters.o
                                                  ./ZHONX_III/Peripherals/Tests/tests.o
                                                  ./ZHONX_III/Src/main.o
hardware_init_hook                                c:/eclipse-arm/gcc-4_8-2014/bin/../lib/gcc/arm-none-eabi/4.8.4/../../../../arm-none-eabi/lib/armv7e-m/fpu/crt0.o
hdma_adc1                                         ./ZHONX_III/Src/stm32f4xx_hal_msp.o
                                                  ./ZHONX_III/Src/main.o
hdma_i2c1_rx                                      ./ZHONX_III/Src/stm32f4xx_it.o
                                                  ./ZHONX_III/Src/stm32f4xx_hal_msp.o
                                                  ./ZHONX_III/Src/main.o
hdma_i2c1_tx                                      ./ZHONX_III/Src/stm32f4xx_it.o
                                                  ./ZHONX_III/Src/stm32f4xx_hal_msp.o
                                                  ./ZHONX_III/Src/main.o
hi2c1                                             ./ZHONX_III/Peripherals/Display/src/ssd1306.o
                                                  ./ZHONX_III/Peripherals/Expander/PCF8574.o
                                                  ./ZHONX_III/Peripherals/Tests/tests.o
                                                  ./ZHONX_III/Src/stm32f4xx_it.o
                                                  ./ZHONX_III/Src/main.o
htim1                                             ./ZHONX_III/Peripherals/Encoders/IE512.o
                                                  ./ZHONX_III/Peripherals/Tests/tests.o
                                                  ./ZHONX_III/Src/user_it_callback.o
                                                  ./ZHONX_III/Src/stm32f4xx_it.o
                                                  ./ZHONX_III/Src/main.o
htim10                                            ./ZHONX_III/Peripherals/Telemeters/Telemeters.o
                                                  ./ZHONX_III/Src/user_it_callback.o
                                                  ./ZHONX_III/Src/stm32f4xx_it.o
                                                  ./ZHONX_III/Src/main.o
htim3                                             ./ZHONX_III/Peripherals/Encoders/IE512.o
                                                  ./ZHONX_III/Peripherals/Tests/tests.o
                                                  ./ZHONX_III/Src/user_it_callback.o
                                                  ./ZHONX_III/Src/stm32f4xx_it.o
                                                  ./ZHONX_III/Src/main.o
htim4                                             ./ZHONX_III/Peripherals/Tests/tests.o
                                                  ./ZHONX_III/Src/main.o
htim6                                             ./ZHONX_III/Src/user_it_callback.o
                                                  ./ZHONX_III/Src/stm32f4xx_it.o
                                                  ./ZHONX_III/Src/main.o
                                                  ./ZHONX_III/TimesBase/TimesBase.o
htim7                                             ./ZHONX_III/Src/user_it_callback.o
                                                  ./ZHONX_III/Src/stm32f4xx_it.o
                                                  ./ZHONX_III/Src/main.o
                                                  ./ZHONX_III/TimesBase/TimesBase.o
htim8                                             ./ZHONX_III/Enslavements/Straight_Controls/Straight_Controls.o
                                                  ./ZHONX_III/Peripherals/Tests/tests.o
                                                  ./ZHONX_III/Src/main.o
huart3                                            ./ZHONX_III/Peripherals/Bluetooth/Bluetooth.o
                                                  ./ZHONX_III/Src/main.o
i                                                 ./ZHONX_III/Enslavements/Straight_Controls/Straight_Controls.o
init_display                                      ./ZHONX_III/Peripherals/Tests/tests.o
initialise_monitor_handles                        ./ZHONX_III/Src/syscalls.o
itoa                                              ./ZHONX_III/Src/itoa.o
ledState                                          ./ZHONX_III/Peripherals/Expander/PCF8574.o
left_encoder                                      ./ZHONX_III/Peripherals/Encoders/IE512.o
                                                  ./ZHONX_III/Peripherals/Tests/tests.o
localeconv                                        c:/eclipse-arm/gcc-4_8-2014/bin/../lib/gcc/arm-none-eabi/4.8.4/../../../../arm-none-eabi/lib/armv7e-m/fpu\libg.a(lib_a-locale.o)
main                                              ./ZHONX_III/Src/main.o
                                                  ./ZHONX_III/Drivers/CMSIS/Device/ST/STM32F4xx/Source/Templates/gcc/startup_stm32f405xx.o
                                                  c:/eclipse-arm/gcc-4_8-2014/bin/../lib/gcc/arm-none-eabi/4.8.4/../../../../arm-none-eabi/lib/armv7e-m/fpu/crt0.o
malloc                                            c:/eclipse-arm/gcc-4_8-2014/bin/../lib/gcc/arm-none-eabi/4.8.4/../../../../arm-none-eabi/lib/armv7e-m/fpu\libg.a(lib_a-__atexit.o)
memchr                                            c:/eclipse-arm/gcc-4_8-2014/bin/../lib/gcc/arm-none-eabi/4.8.4/../../../../arm-none-eabi/lib/armv7e-m/fpu\libg.a(lib_a-memchr-stub.o)
                                                  c:/eclipse-arm/gcc-4_8-2014/bin/../lib/gcc/arm-none-eabi/4.8.4/../../../../arm-none-eabi/lib/armv7e-m/fpu\libg.a(lib_a-svfiprintf.o)
                                                  c:/eclipse-arm/gcc-4_8-2014/bin/../lib/gcc/arm-none-eabi/4.8.4/../../../../arm-none-eabi/lib/armv7e-m/fpu\libg.a(lib_a-svfprintf.o)
memcpy                                            c:/eclipse-arm/gcc-4_8-2014/bin/../lib/gcc/arm-none-eabi/4.8.4/../../../../arm-none-eabi/lib/armv7e-m/fpu\libg.a(lib_a-memcpy.o)
                                                  c:/eclipse-arm/gcc-4_8-2014/bin/../lib/gcc/arm-none-eabi/4.8.4/../../../../arm-none-eabi/lib/armv7e-m/fpu\libg.a(lib_a-svfiprintf.o)
                                                  c:/eclipse-arm/gcc-4_8-2014/bin/../lib/gcc/arm-none-eabi/4.8.4/../../../../arm-none-eabi/lib/armv7e-m/fpu\libg.a(lib_a-mprec.o)
                                                  c:/eclipse-arm/gcc-4_8-2014/bin/../lib/gcc/arm-none-eabi/4.8.4/../../../../arm-none-eabi/lib/armv7e-m/fpu\libg.a(lib_a-dtoa.o)
memmove                                           c:/eclipse-arm/gcc-4_8-2014/bin/../lib/gcc/arm-none-eabi/4.8.4/../../../../arm-none-eabi/lib/armv7e-m/fpu\libg.a(lib_a-memmove.o)
                                                  c:/eclipse-arm/gcc-4_8-2014/bin/../lib/gcc/arm-none-eabi/4.8.4/../../../../arm-none-eabi/lib/armv7e-m/fpu\libg.a(lib_a-reallocr.o)
                                                  c:/eclipse-arm/gcc-4_8-2014/bin/../lib/gcc/arm-none-eabi/4.8.4/../../../../arm-none-eabi/lib/armv7e-m/fpu\libg.a(lib_a-svfiprintf.o)
memset                                            c:/eclipse-arm/gcc-4_8-2014/bin/../lib/gcc/arm-none-eabi/4.8.4/../../../../arm-none-eabi/lib/armv7e-m/fpu\libg.a(lib_a-memset.o)
                                                  c:/eclipse-arm/gcc-4_8-2014/bin/../lib/gcc/arm-none-eabi/4.8.4/../../../../arm-none-eabi/lib/armv7e-m/fpu\libg.a(lib_a-callocr.o)
                                                  ./ZHONX_III/DSP_lib/ControllerFunctions/arm_pid_reset_q31.o
                                                  ./ZHONX_III/DSP_lib/ControllerFunctions/arm_pid_reset_q15.o
                                                  ./ZHONX_III/DSP_lib/ControllerFunctions/arm_pid_reset_f32.o
                                                  ./ZHONX_III/DSP_lib/ControllerFunctions/arm_pid_init_q31.o
                                                  ./ZHONX_III/DSP_lib/ControllerFunctions/arm_pid_init_q15.o
                                                  ./ZHONX_III/DSP_lib/ControllerFunctions/arm_pid_init_f32.o
                                                  ./ZHONX_III/Peripherals/Display/src/ssd1306.o
                                                  c:/eclipse-arm/gcc-4_8-2014/bin/../lib/gcc/arm-none-eabi/4.8.4/../../../../arm-none-eabi/lib/armv7e-m/fpu/crt0.o
pFlash                                            ./ZHONX_III/Drivers/STM32F4xx_HAL_Driver/Src/stm32f4xx_hal_flash_ex.o
                                                  ./ZHONX_III/Drivers/STM32F4xx_HAL_Driver/Src/stm32f4xx_hal_flash.o
printInt                                          ./ZHONX_III/Peripherals/Bluetooth/Bluetooth.o
printString                                       ./ZHONX_III/Peripherals/Bluetooth/Bluetooth.o
right_encoder                                     ./ZHONX_III/Peripherals/Encoders/IE512.o
                                                  ./ZHONX_III/Peripherals/Tests/tests.o
sConfigOC                                         ./ZHONX_III/Enslavements/Straight_Controls/Straight_Controls.o
setlocale                                         c:/eclipse-arm/gcc-4_8-2014/bin/../lib/gcc/arm-none-eabi/4.8.4/../../../../arm-none-eabi/lib/armv7e-m/fpu\libg.a(lib_a-locale.o)
software_init_hook                                c:/eclipse-arm/gcc-4_8-2014/bin/../lib/gcc/arm-none-eabi/4.8.4/../../../../arm-none-eabi/lib/armv7e-m/fpu/crt0.o
sprintf                                           c:/eclipse-arm/gcc-4_8-2014/bin/../lib/gcc/arm-none-eabi/4.8.4/../../../../arm-none-eabi/lib/armv7e-m/fpu\libg.a(lib_a-sprintf.o)
                                                  ./ZHONX_III/Peripherals/Bluetooth/Bluetooth.o
                                                  ./ZHONX_III/Peripherals/Display/src/ssd1306.o
ssd1306ClearCircle                                ./ZHONX_III/Peripherals/Display/src/ssd1306.o
ssd1306ClearPixel                                 ./ZHONX_III/Peripherals/Display/src/ssd1306.o
ssd1306ClearRect                                  ./ZHONX_III/Peripherals/Display/src/ssd1306.o
ssd1306ClearScreen                                ./ZHONX_III/Peripherals/Display/src/ssd1306.o
                                                  ./ZHONX_III/Enslavements/Straight_Controls/Straight_Controls.o
                                                  ./ZHONX_III/Peripherals/Gyroscope/ADXRS620.o
                                                  ./ZHONX_III/Peripherals/Tests/tests.o
ssd1306DrawBmp                                    ./ZHONX_III/Peripherals/Display/src/ssd1306.o
                                                  ./ZHONX_III/Peripherals/Tests/tests.o
ssd1306DrawCircle                                 ./ZHONX_III/Peripherals/Display/src/ssd1306.o
                                                  ./ZHONX_III/Peripherals/Tests/tests.o
ssd1306DrawLine                                   ./ZHONX_III/Peripherals/Display/src/ssd1306.o
                                                  ./ZHONX_III/Peripherals/Tests/tests.o
ssd1306DrawPixel                                  ./ZHONX_III/Peripherals/Display/src/ssd1306.o
ssd1306DrawRect                                   ./ZHONX_III/Peripherals/Display/src/ssd1306.o
                                                  ./ZHONX_III/Peripherals/Tests/tests.o
ssd1306DrawString                                 ./ZHONX_III/Peripherals/Display/src/ssd1306.o
                                                  ./ZHONX_III/Peripherals/Tests/tests.o
ssd1306FillCircle                                 ./ZHONX_III/Peripherals/Display/src/ssd1306.o
                                                  ./ZHONX_III/Peripherals/Tests/tests.o
ssd1306FillRect                                   ./ZHONX_III/Peripherals/Display/src/ssd1306.o
                                                  ./ZHONX_III/Peripherals/Tests/tests.o
ssd1306GetPixel                                   ./ZHONX_III/Peripherals/Display/src/ssd1306.o
ssd1306Init                                       ./ZHONX_III/Peripherals/Display/src/ssd1306.o
                                                  ./ZHONX_III/Peripherals/Tests/tests.o
                                                  ./ZHONX_III/Src/main.o
ssd1306InvertArea                                 ./ZHONX_III/Peripherals/Display/src/ssd1306.o
ssd1306InvertPixel                                ./ZHONX_III/Peripherals/Display/src/ssd1306.o
ssd1306PrintInt                                   ./ZHONX_III/Peripherals/Display/src/ssd1306.o
                                                  ./ZHONX_III/Enslavements/Straight_Controls/Straight_Controls.o
                                                  ./ZHONX_III/Peripherals/Gyroscope/ADXRS620.o
                                                  ./ZHONX_III/Peripherals/Tests/tests.o
ssd1306ProgressBar                                ./ZHONX_III/Peripherals/Display/src/ssd1306.o
                                                  ./ZHONX_III/Peripherals/Tests/tests.o
ssd1306Refresh                                    ./ZHONX_III/Peripherals/Display/src/ssd1306.o
                                                  ./ZHONX_III/Enslavements/Straight_Controls/Straight_Controls.o
                                                  ./ZHONX_III/Peripherals/Gyroscope/ADXRS620.o
                                                  ./ZHONX_III/Peripherals/Tests/tests.o
ssd1306ShiftFrameBuffer                           ./ZHONX_III/Peripherals/Display/src/ssd1306.o
                                                  ./ZHONX_III/Peripherals/Tests/tests.o
strcmp                                            c:/eclipse-arm/gcc-4_8-2014/bin/../lib/gcc/arm-none-eabi/4.8.4/../../../../arm-none-eabi/lib/armv7e-m/fpu\libg.a(lib_a-strcmp.o)
                                                  c:/eclipse-arm/gcc-4_8-2014/bin/../lib/gcc/arm-none-eabi/4.8.4/../../../../arm-none-eabi/lib/armv7e-m/fpu\libg.a(lib_a-locale.o)
strlen                                            c:/eclipse-arm/gcc-4_8-2014/bin/../lib/gcc/arm-none-eabi/4.8.4/../../../../arm-none-eabi/lib/armv7e-m/fpu\libg.a(lib_a-strlen.o)
                                                  c:/eclipse-arm/gcc-4_8-2014/bin/../lib/gcc/arm-none-eabi/4.8.4/../../../../arm-none-eabi/lib/armv7e-m/fpu\libg.a(lib_a-svfiprintf.o)
                                                  c:/eclipse-arm/gcc-4_8-2014/bin/../lib/gcc/arm-none-eabi/4.8.4/../../../../arm-none-eabi/lib/armv7e-m/fpu\libg.a(lib_a-svfprintf.o)
                                                  ./ZHONX_III/Peripherals/Display/src/ssd1306.o
                                                  ./ZHONX_III/Src/itoa.o
strrev                                            ./ZHONX_III/Src/itoa.o
test_Beeper                                       ./ZHONX_III/Peripherals/Tests/tests.o
                                                  ./ZHONX_III/Src/main.o
test_EasterEgg                                    ./ZHONX_III/Peripherals/Tests/tests.o
test_Encoders                                     ./ZHONX_III/Peripherals/Tests/tests.o
                                                  ./ZHONX_III/Src/main.o
test_Expander                                     ./ZHONX_III/Peripherals/Tests/tests.o
test_Gyro                                         ./ZHONX_III/Peripherals/Tests/tests.o
test_LineSensors                                  ./ZHONX_III/Peripherals/Tests/tests.o
test_Motor_Move                                   ./ZHONX_III/Peripherals/Tests/tests.o
test_Motors                                       ./ZHONX_III/Peripherals/Tests/tests.o
test_Oled                                         ./ZHONX_III/Peripherals/Tests/tests.o
test_PWled                                        ./ZHONX_III/Peripherals/Tests/tests.o
test_Telemeters                                   ./ZHONX_III/Peripherals/Tests/tests.o
                                                  ./ZHONX_III/Src/main.o
test_Vbat                                         ./ZHONX_III/Peripherals/Tests/tests.o
trajectory_control                                ./ZHONX_III/Enslavements/Straight_Controls/Straight_Controls.o
uhADCxConvertedValue_1                            ./ZHONX_III/Peripherals/Tests/tests.o
uhADCxConvertedValue_2                            ./ZHONX_III/Peripherals/Tests/tests.o
uhADCxConvertedValue_3                            ./ZHONX_III/Peripherals/Tests/tests.o
uhADCxConvertedValue_4                            ./ZHONX_III/Peripherals/Tests/tests.o
uhADCxConvertedValue_5                            ./ZHONX_III/Peripherals/Tests/tests.o
uhADCxConvertedValue_6                            ./ZHONX_III/Peripherals/Tests/tests.o
uhADCxConvertedValue_7                            ./ZHONX_III/Peripherals/Tests/tests.o
uhADCxConvertedValue_8                            ./ZHONX_III/Peripherals/Tests/tests.o
uhADCxConvertedValue_Gyro                         ./ZHONX_III/Peripherals/Tests/tests.o
uhADCxConvertedValue_LDIAG                        ./ZHONX_III/Peripherals/Telemeters/Telemeters.o
uhADCxConvertedValue_LFRONT                       ./ZHONX_III/Peripherals/Telemeters/Telemeters.o
uhADCxConvertedValue_RDIAG                        ./ZHONX_III/Peripherals/Telemeters/Telemeters.o
uhADCxConvertedValue_RFRONT                       ./ZHONX_III/Peripherals/Telemeters/Telemeters.o
